	.cpu generic+fp+simd
	.file	"hisi-blk-busy-idle-notify.c"
	.text
.Ltext0:
	.cfi_sections	.debug_frame
	.align	2
	.global	blk_mq_tagset_busy_idle_enable
	.type	blk_mq_tagset_busy_idle_enable, %function
blk_mq_tagset_busy_idle_enable:
.LFB2973:
	.file 1 "/mnt/disk/jenkins/ci/workspace/chipset_9.1.0_boston/opensource/component_code/vendor/huawei/extra/build/build_script/kirin_kernel_release/kernel/block/hisi-blk-busy-idle-notify.c"
	.loc 1 485 0
	.cfi_startproc
.LVL0:
	.loc 1 487 0
	cbnz	w1, .L5
	.loc 1 490 0
	ldr	x1, [x0,40]
.LVL1:
	add	x0, x0, 16
.LVL2:
	and	x1, x1, -17
	str	x1, [x0,24]
	.loc 1 491 0
	ret
.LVL3:
.L5:
	.loc 1 488 0
	add	x0, x0, 16
.LVL4:
	ldr	x1, [x0,24]
.LVL5:
	orr	x1, x1, 16
	str	x1, [x0,24]
	.loc 1 491 0
	ret
	.cfi_endproc
.LFE2973:
	.size	blk_mq_tagset_busy_idle_enable, .-blk_mq_tagset_busy_idle_enable
	.align	2
	.global	blk_mq_tagset_hw_idle_notify_enable
	.type	blk_mq_tagset_hw_idle_notify_enable, %function
blk_mq_tagset_hw_idle_notify_enable:
.LFB2975:
	.loc 1 509 0
	.cfi_startproc
.LVL6:
	.loc 1 512 0
	cmp	w1, wzr
	cset	w1, ne
.LVL7:
	strb	w1, [x0,80]
	.loc 1 513 0
	ret
	.cfi_endproc
.LFE2975:
	.size	blk_mq_tagset_hw_idle_notify_enable, .-blk_mq_tagset_hw_idle_notify_enable
	.align	2
	.type	hisi_blk_busy_idle_handler_latency_check_timer_expire, %function
hisi_blk_busy_idle_handler_latency_check_timer_expire:
.LFB2951:
	.loc 1 17 0
	.cfi_startproc
.LVL8:
	stp	x29, x30, [sp, -16]!
	.cfi_def_cfa_offset 16
	.cfi_offset 29, -16
	.cfi_offset 30, -8
	.loc 1 20 0
	adrp	x1, .LANCHOR0
	mov	w3, 1000
	.loc 1 17 0
	add	x29, sp, 0
	.cfi_def_cfa_register 29
	.loc 1 20 0
	ldr	x2, [x0]
	adrp	x0, .LC0
.LVL9:
	add	x1, x1, :lo12:.LANCHOR0
	add	x0, x0, :lo12:.LC0
	bl	printk
.LVL10:
	.loc 1 22 0
	ldp	x29, x30, [sp], 16
	.cfi_restore 30
	.cfi_restore 29
	.cfi_def_cfa 31, 0
	ret
	.cfi_endproc
.LFE2951:
	.size	hisi_blk_busy_idle_handler_latency_check_timer_expire, .-hisi_blk_busy_idle_handler_latency_check_timer_expire
	.align	2
	.type	hisi_blk_busy_idle_notify_handler, %function
hisi_blk_busy_idle_notify_handler:
.LFB2952:
	.loc 1 25 0
	.cfi_startproc
.LVL11:
	stp	x29, x30, [sp, -80]!
	.cfi_def_cfa_offset 80
	.cfi_offset 29, -80
	.cfi_offset 30, -72
	add	x29, sp, 0
	.cfi_def_cfa_register 29
	stp	x19, x20, [sp,16]
	.cfi_offset 19, -64
	.cfi_offset 20, -56
.LBB142:
	.loc 1 29 0
	sub	x19, x0, #64
.LVL12:
.LBE142:
	.loc 1 25 0
	stp	x21, x22, [sp,32]
	stp	x23, x24, [sp,48]
	.cfi_offset 21, -48
	.cfi_offset 22, -40
	.cfi_offset 23, -32
	.cfi_offset 24, -24
	.loc 1 25 0
	mov	x23, x0
	mov	x22, x1
	.loc 1 30 0
	ldr	x0, [x19,88]
.LVL13:
	cbz	x0, .L28
	.loc 1 39 0
	bl	ktime_get
.LVL14:
	.loc 1 40 0
	add	x21, x19, 16
	adrp	x1, jiffies
	.loc 1 39 0
	mov	x20, x0
.LVL15:
	.loc 1 40 0
	mov	x0, x21
	ldr	x1, [x1,#:lo12:jiffies]
	add	x1, x1, 250
	bl	mod_timer
.LVL16:
	.loc 1 42 0
	cbz	x22, .L12
	cmp	x22, 1
	beq	.L29
.L22:
	.loc 1 27 0
	mov	w22, 0
.LVL17:
	.loc 1 26 0
	mov	w24, 0
.LVL18:
.L11:
	.loc 1 67 0
	mov	x0, x21
.LBB143:
.LBB144:
.LBB145:
	.file 2 "/mnt/disk/jenkins/ci/workspace/chipset_9.1.0_boston/opensource/component_code/vendor/huawei/extra/build/build_script/kirin_kernel_release/kernel/include/linux/ktime.h"
	.loc 2 144 0
	mov	w19, w22
.LVL19:
.LBE145:
.LBE144:
.LBE143:
	.loc 1 67 0
	bl	del_timer_sync
.LVL20:
	.loc 1 68 0
	bl	ktime_get
.LVL21:
.LBB152:
.LBB153:
	.loc 2 233 0
	add	x1, x20, 9998336
	add	x1, x1, 1664
.LBE153:
.LBE152:
.LBB155:
.LBB149:
.LBB146:
	.loc 2 144 0
	cmp	x1, x0
	bgt	.L26
	.loc 2 146 0
	bge	.L26
.L17:
.LBE146:
.LBE149:
.LBE155:
	.loc 1 70 0
	ldr	x2, [x23,-64]
.LBB156:
.LBB157:
.LBB158:
	.loc 2 202 0
	mov	x19, 13531
	movk	x19, 0xd7b6, lsl 16
.LBE158:
.LBE157:
.LBE156:
	.loc 1 70 0
	str	x2, [x29,72]
.LBB167:
.LBB163:
.LBB159:
	.loc 2 202 0
	movk	x19, 0xde82, lsl 32
.LBE159:
.LBE163:
.LBE167:
	.loc 1 70 0
	bl	ktime_get
.LVL22:
.LBB168:
.LBB164:
.LBB160:
	.loc 2 202 0
	movk	x19, 0x431b, lsl 48
.LBE160:
.LBE164:
.LBE168:
	.loc 1 70 0
	sub	x3, x0, x20
	.loc 1 70 0 is_stmt 0 discriminator 2
	adrp	x1, .LANCHOR0
	adrp	x0, .LC3
	add	x1, x1, :lo12:.LANCHOR0
.LBB169:
.LBB165:
.LBB161:
	.loc 2 202 0 is_stmt 1
	smulh	x19, x3, x19
.LBE161:
.LBE165:
.LBE169:
	.loc 1 70 0 discriminator 2
	ldr	x2, [x29,72]
	add	x0, x0, :lo12:.LC3
.LBB170:
.LBB166:
.LBB162:
	.loc 2 202 0
	asr	x19, x19, 18
.LBE162:
.LBE166:
.LBE170:
	.loc 1 70 0 discriminator 2
	add	x1, x1, 56
	sub	x3, x19, x3, asr 63
	bl	printk
.LVL23:
.L16:
	.loc 1 72 0
	cmp	w24, 2
	mov	w19, w22
	beq	.L30
.L26:
	.loc 1 79 0
	mov	w0, w19
	ldp	x19, x20, [sp,16]
	.cfi_remember_state
	.cfi_restore 20
	.cfi_restore 19
.LVL24:
	ldp	x21, x22, [sp,32]
	.cfi_restore 22
	.cfi_restore 21
.LVL25:
	ldp	x23, x24, [sp,48]
	.cfi_restore 24
	.cfi_restore 23
.LVL26:
	ldp	x29, x30, [sp], 80
	.cfi_restore 30
	.cfi_restore 29
	.cfi_def_cfa 31, 0
	ret
.LVL27:
.L29:
	.cfi_restore_state
	.loc 1 44 0
	ldr	w0, [x19,104]
	cbnz	w0, .L22
	.loc 1 45 0
	ldr	x2, [x19,88]
	mov	x0, x19
	mov	w1, w22
	blr	x2
.LVL28:
	.loc 1 46 0
	str	w22, [x19,104]
.LVL29:
	.loc 1 47 0
	cmp	w0, 1
	.loc 1 45 0
	mov	w24, w0
.LVL30:
	.loc 1 47 0
	beq	.L31
	.loc 1 51 0
	str	xzr, [x19,120]
	b	.L15
.LVL31:
.L12:
	.loc 1 56 0
	ldr	w0, [x19,104]
	cmp	w0, 1
	bne	.L22
	.loc 1 57 0
	ldr	x2, [x19,88]
	mov	x0, x19
	mov	w1, 0
	blr	x2
.LVL32:
	.loc 1 58 0
	str	wzr, [x19,104]
	.loc 1 57 0
	mov	w24, w0
.LVL33:
.L15:
	.loc 1 67 0
	mov	x0, x21
.LBB171:
.LBB154:
	.loc 2 233 0
	add	x19, x20, 9998336
.LVL34:
	add	x19, x19, 1664
.LBE154:
.LBE171:
.LBB172:
.LBB150:
.LBB147:
	.loc 2 144 0
	mov	w22, 0
.LVL35:
.LBE147:
.LBE150:
.LBE172:
	.loc 1 67 0
	bl	del_timer_sync
.LVL36:
	.loc 1 68 0
	bl	ktime_get
.LVL37:
.LBB173:
.LBB151:
.LBB148:
	.loc 2 144 0
	cmp	x0, x19
	blt	.L16
	.loc 2 146 0
	cmp	x19, x0
	blt	.L17
	b	.L16
.LVL38:
.L31:
.LBE148:
.LBE151:
.LBE173:
	.loc 1 49 0
	ldr	x0, [x19,120]
	.loc 1 48 0
	mov	w22, 32769
.LVL39:
	.loc 1 49 0
	add	x0, x0, 1
	str	x0, [x19,120]
	b	.L11
.LVL40:
.L28:
	.loc 1 31 0
	adrp	x1, .LANCHOR0
	ldr	x2, [x23,-64]
.LVL41:
	adrp	x0, .LC1
	add	x1, x1, :lo12:.LANCHOR0
	add	x1, x1, 56
	mov	x3, 0
	add	x0, x0, :lo12:.LC1
	.loc 1 36 0
	mov	w19, 0
.LVL42:
	.loc 1 31 0
	bl	printk
.LVL43:
	.loc 1 79 0
	mov	w0, w19
	ldp	x19, x20, [sp,16]
	.cfi_remember_state
	.cfi_restore 19
	.cfi_restore 20
	ldp	x21, x22, [sp,32]
	.cfi_restore 21
	.cfi_restore 22
.LVL44:
	ldp	x23, x24, [sp,48]
	.cfi_restore 23
	.cfi_restore 24
.LVL45:
	ldp	x29, x30, [sp], 80
	.cfi_restore 29
	.cfi_restore 30
	.cfi_def_cfa 31, 0
	ret
.LVL46:
.L30:
	.cfi_restore_state
	.loc 1 73 0
	adrp	x1, .LANCHOR0
	ldr	x2, [x23,-64]
	adrp	x0, .LC2
	add	x1, x1, :lo12:.LANCHOR0
	add	x1, x1, 56
	add	x0, x0, :lo12:.LC2
	bl	printk
.LVL47:
	b	.L26
	.cfi_endproc
.LFE2952:
	.size	hisi_blk_busy_idle_notify_handler, .-hisi_blk_busy_idle_notify_handler
	.align	2
	.global	hisi_blk_busy_idle_lld_trigger_idle_notify
	.type	hisi_blk_busy_idle_lld_trigger_idle_notify, %function
hisi_blk_busy_idle_lld_trigger_idle_notify:
.LFB2964:
	.loc 1 376 0
	.cfi_startproc
.LVL48:
	stp	x29, x30, [sp, -16]!
	.cfi_def_cfa_offset 16
	.cfi_offset 29, -16
	.cfi_offset 30, -8
	add	x29, sp, 0
	.cfi_def_cfa_register 29
	.loc 1 377 0
	ldr	w1, [x0]
	cmp	w1, 122
	bne	.L32
	.loc 1 377 0 is_stmt 0 discriminator 1
	ldrb	w1, [x0,64]
	cbz	w1, .L32
.LBB174:
.LBB175:
	.file 3 "/mnt/disk/jenkins/ci/workspace/chipset_9.1.0_boston/opensource/component_code/vendor/huawei/extra/build/build_script/kirin_kernel_release/kernel/include/linux/workqueue.h"
	.loc 3 492 0 is_stmt 1
	adrp	x1, .LANCHOR1
	mov	x2, x0
	add	x2, x2, 72
	mov	w0, 8
.LVL49:
	mov	x3, 0
	ldr	x1, [x1,#:lo12:.LANCHOR1]
	bl	queue_delayed_work_on
.LVL50:
.L32:
.LBE175:
.LBE174:
	.loc 1 380 0
	ldp	x29, x30, [sp], 16
	.cfi_restore 30
	.cfi_restore 29
	.cfi_def_cfa 31, 0
	ret
	.cfi_endproc
.LFE2964:
	.size	hisi_blk_busy_idle_lld_trigger_idle_notify, .-hisi_blk_busy_idle_lld_trigger_idle_notify
	.align	2
	.global	blk_queue_busy_idle_enable
	.type	blk_queue_busy_idle_enable, %function
blk_queue_busy_idle_enable:
.LFB2972:
	.loc 1 472 0
	.cfi_startproc
.LVL51:
	stp	x29, x30, [sp, -32]!
	.cfi_def_cfa_offset 32
	.cfi_offset 29, -32
	.cfi_offset 30, -24
	add	x29, sp, 0
	.cfi_def_cfa_register 29
	.loc 1 472 0
	str	x1, [x29,24]
	.loc 1 473 0
	bl	hisi_blk_get_lld
.LVL52:
	.loc 1 474 0
	ldr	x1, [x29,24]
.LVL53:
	cbnz	w1, .L40
.LVL54:
	.loc 1 477 0
	ldr	x1, [x0,24]
.LVL55:
	and	x1, x1, -17
	str	x1, [x0,24]
	.loc 1 478 0
	ldp	x29, x30, [sp], 32
	.cfi_remember_state
	.cfi_restore 30
	.cfi_restore 29
	.cfi_def_cfa 31, 0
	ret
.LVL56:
.L40:
	.cfi_restore_state
	.loc 1 475 0
	ldr	x1, [x0,24]
.LVL57:
	orr	x1, x1, 16
	str	x1, [x0,24]
	.loc 1 478 0
	ldp	x29, x30, [sp], 32
	.cfi_restore 29
	.cfi_restore 30
	.cfi_def_cfa 31, 0
	ret
	.cfi_endproc
.LFE2972:
	.size	blk_queue_busy_idle_enable, .-blk_queue_busy_idle_enable
	.align	2
	.global	blk_queue_hw_idle_notify_enable
	.type	blk_queue_hw_idle_notify_enable, %function
blk_queue_hw_idle_notify_enable:
.LFB2974:
	.loc 1 498 0
	.cfi_startproc
.LVL58:
	stp	x29, x30, [sp, -32]!
	.cfi_def_cfa_offset 32
	.cfi_offset 29, -32
	.cfi_offset 30, -24
	add	x29, sp, 0
	.cfi_def_cfa_register 29
	.loc 1 498 0
	str	x1, [x29,24]
	.loc 1 499 0
	bl	hisi_blk_get_lld
.LVL59:
	.loc 1 501 0
	ldr	x1, [x29,24]
.LVL60:
	cmp	w1, wzr
	cset	w1, ne
.LVL61:
	strb	w1, [x0,64]
	.loc 1 502 0
	ldp	x29, x30, [sp], 32
	.cfi_restore 30
	.cfi_restore 29
	.cfi_def_cfa 31, 0
	ret
	.cfi_endproc
.LFE2974:
	.size	blk_queue_hw_idle_notify_enable, .-blk_queue_hw_idle_notify_enable
	.align	2
	.type	hisi_blk_idle_notify_work, %function
hisi_blk_idle_notify_work:
.LFB2955:
	.loc 1 144 0
	.cfi_startproc
.LVL62:
	stp	x29, x30, [sp, -48]!
	.cfi_def_cfa_offset 48
	.cfi_offset 29, -48
	.cfi_offset 30, -40
	add	x29, sp, 0
	.cfi_def_cfa_register 29
	stp	x19, x20, [sp,16]
	.cfi_offset 19, -32
	.cfi_offset 20, -24
	mov	x19, x0
	.loc 1 147 0
	sub	x0, x0, #72
.LVL63:
	.loc 1 144 0
	stp	x21, x22, [sp,32]
	.cfi_offset 21, -16
	.cfi_offset 22, -8
	.loc 1 147 0
	bl	hisi_blk_get_queue_by_lld
.LVL64:
	mov	x22, x0
.LVL65:
	.loc 1 149 0
	ldrb	w0, [x19,-8]
	cbz	w0, .L43
.LBB176:
.LBB177:
.LBB178:
	.file 4 "/mnt/disk/jenkins/ci/workspace/chipset_9.1.0_boston/opensource/component_code/vendor/huawei/extra/build/build_script/kirin_kernel_release/kernel/include/linux/compiler.h"
	.loc 4 275 0
	str	wzr, [x19,184]
.L43:
.LBE178:
.LBE177:
.LBE176:
	.loc 1 152 0
	add	x21, x19, 192
	mov	x0, x21
	bl	mutex_lock
.LVL66:
.LBB179:
.LBB180:
.LBB181:
	.loc 4 247 0 discriminator 4
	ldr	w0, [x19,184]
.LBE181:
.LBE180:
.LBE179:
	.loc 1 153 0 discriminator 5
	cbnz	w0, .L44
	.loc 1 153 0 is_stmt 0 discriminator 6
	ldr	w0, [x19,264]
	cmp	w0, 1
	beq	.L44
	.loc 1 155 0 is_stmt 1
	ldr	x0, [x19,304]
	.loc 1 154 0
	mov	w1, 1
	str	w1, [x19,264]
	.loc 1 155 0
	add	x0, x0, 1
	str	x0, [x19,304]
	.loc 1 156 0
	bl	ktime_get
.LVL67:
	str	x0, [x19,272]
	.loc 1 157 0
	ldr	x1, [x19,280]
	cbz	x1, .L45
	.loc 1 158 0
	ldr	x2, [x19,288]
	sub	x0, x0, x1
	add	x1, x2, x0
	str	x1, [x19,288]
.L45:
	.loc 1 159 0
	add	x0, x19, 104
	mov	x1, 1
	mov	x2, x22
	bl	blocking_notifier_call_chain
.LVL68:
.L44:
	.loc 1 161 0
	mov	x0, x21
	bl	mutex_unlock
.LVL69:
	.loc 1 169 0
	ldp	x19, x20, [sp,16]
	.cfi_restore 20
	.cfi_restore 19
.LVL70:
	ldp	x21, x22, [sp,32]
	.cfi_restore 22
	.cfi_restore 21
.LVL71:
	ldp	x29, x30, [sp], 48
	.cfi_restore 30
	.cfi_restore 29
	.cfi_def_cfa 31, 0
	ret
	.cfi_endproc
.LFE2955:
	.size	hisi_blk_idle_notify_work, .-hisi_blk_idle_notify_work
	.section	.text.unlikely,"ax",%progbits
	.align	2
	.type	hisi_blk_busy_idle_event_register.part.3, %function
hisi_blk_busy_idle_event_register.part.3:
.LFB2985:
	.loc 1 81 0
	.cfi_startproc
.LVL72:
	stp	x29, x30, [sp, -32]!
	.cfi_def_cfa_offset 32
	.cfi_offset 29, -32
	.cfi_offset 30, -24
	.loc 1 106 0
	adrp	x4, hisi_blk_busy_idle_notify_handler
	.loc 1 108 0
	mov	x3, 0
	.loc 1 81 0
	add	x29, sp, 0
	.cfi_def_cfa_register 29
	stp	x19, x20, [sp,16]
	.cfi_offset 19, -16
	.cfi_offset 20, -8
	.loc 1 81 0
	mov	x19, x1
	.loc 1 106 0
	add	x4, x4, :lo12:hisi_blk_busy_idle_notify_handler
	.loc 1 81 0
	mov	x20, x0
	.loc 1 108 0
	mov	x2, 0
	add	x0, x1, 16
.LVL73:
	mov	w1, 0
.LVL74:
	.loc 1 106 0
	str	x4, [x19,64]
	.loc 1 107 0
	str	wzr, [x19,80]
	.loc 1 108 0
	bl	init_timer_key
.LVL75:
	.loc 1 109 0
	str	x19, [x19,48]
	.loc 1 110 0
	adrp	x0, hisi_blk_busy_idle_handler_latency_check_timer_expire
	.loc 1 112 0
	mov	w2, 1
	.loc 1 110 0
	add	x0, x0, :lo12:hisi_blk_busy_idle_handler_latency_check_timer_expire
	.loc 1 112 0
	str	w2, [x19,104]
	.loc 1 114 0
	add	x1, x19, 64
	.loc 1 110 0
	str	x0, [x19,40]
	.loc 1 111 0
	str	x20, [x19,8]
	.loc 1 114 0
	add	x0, x20, 176
	.loc 1 113 0
	str	xzr, [x19,120]
	.loc 1 114 0
	bl	blocking_notifier_chain_register
.LVL76:
	.loc 1 116 0
	ldr	x1, [x19]
	adrp	x0, .LC4
	add	x0, x0, :lo12:.LC4
	bl	printk
.LVL77:
	.loc 1 118 0
	mov	w0, 0
	ldp	x19, x20, [sp,16]
	.cfi_restore 20
	.cfi_restore 19
.LVL78:
	ldp	x29, x30, [sp], 32
	.cfi_restore 30
	.cfi_restore 29
	.cfi_def_cfa 31, 0
	ret
	.cfi_endproc
.LFE2985:
	.size	hisi_blk_busy_idle_event_register.part.3, .-hisi_blk_busy_idle_event_register.part.3
	.text
	.align	2
	.global	blk_lld_busy_idle_event_unsubscriber
	.type	blk_lld_busy_idle_event_unsubscriber, %function
blk_lld_busy_idle_event_unsubscriber:
.LFB2971:
	.loc 1 463 0
	.cfi_startproc
.LVL79:
	stp	x29, x30, [sp, -32]!
	.cfi_def_cfa_offset 32
	.cfi_offset 29, -32
	.cfi_offset 30, -24
.LBB184:
.LBB185:
	.loc 1 122 0
	adrp	x2, hisi_blk_busy_idle_notify_handler
.LBE185:
.LBE184:
	.loc 1 463 0
	add	x29, sp, 0
	.cfi_def_cfa_register 29
	str	x19, [sp,16]
	.cfi_offset 19, -16
.LBB189:
.LBB186:
	.loc 1 122 0
	add	x2, x2, :lo12:hisi_blk_busy_idle_notify_handler
	ldr	x3, [x1,64]
	cmp	x3, x2
	bne	.L59
	.loc 1 124 0
	ldr	x4, [x1,8]
	mov	x3, x0
	mov	x19, x1
	cmp	x0, x4
	bne	.L60
	.loc 1 134 0
	add	x1, x1, 64
.LVL80:
	add	x0, x0, 176
	bl	blocking_notifier_chain_unregister
.LVL81:
	.loc 1 135 0
	str	xzr, [x19]
	.loc 1 139 0
	adrp	x0, .LC6
	.loc 1 136 0
	str	xzr, [x19,64]
	.loc 1 139 0
	add	x0, x0, :lo12:.LC6
	mov	x1, 0
	.loc 1 137 0
	str	xzr, [x19,8]
	.loc 1 139 0
	bl	printk
.LVL82:
	.loc 1 140 0
	mov	w0, 0
.L57:
.LBE186:
.LBE189:
	.loc 1 465 0
	ldr	x19, [sp,16]
	.cfi_remember_state
	.cfi_restore 19
.LVL83:
	ldp	x29, x30, [sp], 32
	.cfi_restore 30
	.cfi_restore 29
	.cfi_def_cfa 31, 0
	ret
.LVL84:
.L59:
	.cfi_restore_state
.LBB190:
.LBB187:
	.loc 1 123 0
	mov	w0, -22
.LVL85:
.LBE187:
.LBE190:
	.loc 1 465 0
	ldr	x19, [sp,16]
	.cfi_remember_state
	.cfi_restore 19
	ldp	x29, x30, [sp], 32
	.cfi_restore 29
	.cfi_restore 30
	.cfi_def_cfa 31, 0
	ret
.LVL86:
.L60:
	.cfi_restore_state
.LBB191:
.LBB188:
	.loc 1 125 0
	ldr	x2, [x1]
	adrp	x1, .LANCHOR0
	add	x1, x1, :lo12:.LANCHOR0
	adrp	x0, .LC5
.LVL87:
	add	x1, x1, 96
	add	x0, x0, :lo12:.LC5
	bl	printk
.LVL88:
	.loc 1 130 0
	bl	dump_stack
.LVL89:
	.loc 1 131 0
	mov	w0, -22
	b	.L57
.LBE188:
.LBE191:
	.cfi_endproc
.LFE2971:
	.size	blk_lld_busy_idle_event_unsubscriber, .-blk_lld_busy_idle_event_unsubscriber
	.align	2
	.global	blk_queue_busy_idle_event_unsubscriber
	.type	blk_queue_busy_idle_event_unsubscriber, %function
blk_queue_busy_idle_event_unsubscriber:
.LFB2970:
	.loc 1 454 0
	.cfi_startproc
.LVL90:
	stp	x29, x30, [sp, -32]!
	.cfi_def_cfa_offset 32
	.cfi_offset 29, -32
	.cfi_offset 30, -24
	add	x29, sp, 0
	.cfi_def_cfa_register 29
	str	x19, [sp,16]
	.cfi_offset 19, -16
	.loc 1 454 0
	mov	x19, x1
	.loc 1 455 0
	bl	hisi_blk_get_lld
.LVL91:
.LBB194:
.LBB195:
	.loc 1 122 0
	adrp	x1, hisi_blk_busy_idle_notify_handler
	ldr	x2, [x19,64]
	add	x1, x1, :lo12:hisi_blk_busy_idle_notify_handler
	cmp	x2, x1
	bne	.L64
	.loc 1 124 0
	ldr	x4, [x19,8]
	cmp	x0, x4
	bne	.L65
	.loc 1 134 0
	add	x1, x19, 64
	add	x0, x0, 176
	bl	blocking_notifier_chain_unregister
.LVL92:
	.loc 1 135 0
	str	xzr, [x19]
	.loc 1 139 0
	adrp	x0, .LC6
	.loc 1 136 0
	str	xzr, [x19,64]
	.loc 1 139 0
	add	x0, x0, :lo12:.LC6
	mov	x1, 0
	.loc 1 137 0
	str	xzr, [x19,8]
	.loc 1 139 0
	bl	printk
.LVL93:
	.loc 1 140 0
	mov	w0, 0
.L62:
.LBE195:
.LBE194:
	.loc 1 456 0
	ldr	x19, [sp,16]
	.cfi_remember_state
	.cfi_restore 19
.LVL94:
	ldp	x29, x30, [sp], 32
	.cfi_restore 30
	.cfi_restore 29
	.cfi_def_cfa 31, 0
	ret
.LVL95:
.L64:
	.cfi_restore_state
.LBB198:
.LBB196:
	.loc 1 123 0
	mov	w0, -22
.LBE196:
.LBE198:
	.loc 1 456 0
	ldr	x19, [sp,16]
	.cfi_remember_state
	.cfi_restore 19
.LVL96:
	ldp	x29, x30, [sp], 32
	.cfi_restore 29
	.cfi_restore 30
	.cfi_def_cfa 31, 0
	ret
.LVL97:
.L65:
	.cfi_restore_state
.LBB199:
.LBB197:
	.loc 1 125 0
	adrp	x1, .LANCHOR0
	mov	x3, x0
	ldr	x2, [x19]
	add	x1, x1, :lo12:.LANCHOR0
	adrp	x0, .LC5
	add	x1, x1, 96
	add	x0, x0, :lo12:.LC5
	bl	printk
.LVL98:
	.loc 1 130 0
	bl	dump_stack
.LVL99:
	.loc 1 131 0
	mov	w0, -22
	b	.L62
.LBE197:
.LBE199:
	.cfi_endproc
.LFE2970:
	.size	blk_queue_busy_idle_event_unsubscriber, .-blk_queue_busy_idle_event_unsubscriber
	.align	2
	.global	blk_busy_idle_event_unsubscriber
	.type	blk_busy_idle_event_unsubscriber, %function
blk_busy_idle_event_unsubscriber:
.LFB2969:
	.loc 1 445 0
	.cfi_startproc
.LVL100:
	stp	x29, x30, [sp, -32]!
	.cfi_def_cfa_offset 32
	.cfi_offset 29, -32
	.cfi_offset 30, -24
	add	x29, sp, 0
	.cfi_def_cfa_register 29
	str	x19, [sp,16]
	.cfi_offset 19, -16
	.loc 1 445 0
	mov	x19, x1
.LBB204:
.LBB205:
	.file 5 "/mnt/disk/jenkins/ci/workspace/chipset_9.1.0_boston/opensource/component_code/vendor/huawei/extra/build/build_script/kirin_kernel_release/kernel/include/linux/blkdev.h"
	.loc 5 1264 0
	ldr	x0, [x0,168]
.LVL101:
.LBE205:
.LBE204:
	.loc 1 446 0 discriminator 1
	ldr	x0, [x0,1048]
	bl	hisi_blk_get_lld
.LVL102:
.LBB206:
.LBB207:
	.loc 1 122 0
	ldr	x2, [x19,64]
	adrp	x1, hisi_blk_busy_idle_notify_handler
	add	x1, x1, :lo12:hisi_blk_busy_idle_notify_handler
	cmp	x2, x1
	bne	.L69
	.loc 1 124 0
	ldr	x4, [x19,8]
	cmp	x0, x4
	bne	.L70
	.loc 1 134 0
	add	x1, x19, 64
	add	x0, x0, 176
	bl	blocking_notifier_chain_unregister
.LVL103:
	.loc 1 135 0
	str	xzr, [x19]
	.loc 1 139 0
	adrp	x0, .LC6
	.loc 1 136 0
	str	xzr, [x19,64]
	.loc 1 139 0
	add	x0, x0, :lo12:.LC6
	mov	x1, 0
	.loc 1 137 0
	str	xzr, [x19,8]
	.loc 1 139 0
	bl	printk
.LVL104:
	.loc 1 140 0
	mov	w0, 0
.L67:
.LBE207:
.LBE206:
	.loc 1 447 0
	ldr	x19, [sp,16]
	.cfi_remember_state
	.cfi_restore 19
.LVL105:
	ldp	x29, x30, [sp], 32
	.cfi_restore 30
	.cfi_restore 29
	.cfi_def_cfa 31, 0
	ret
.LVL106:
.L69:
	.cfi_restore_state
.LBB210:
.LBB208:
	.loc 1 123 0
	mov	w0, -22
.LBE208:
.LBE210:
	.loc 1 447 0
	ldr	x19, [sp,16]
	.cfi_remember_state
	.cfi_restore 19
.LVL107:
	ldp	x29, x30, [sp], 32
	.cfi_restore 29
	.cfi_restore 30
	.cfi_def_cfa 31, 0
	ret
.LVL108:
.L70:
	.cfi_restore_state
.LBB211:
.LBB209:
	.loc 1 125 0
	adrp	x1, .LANCHOR0
	mov	x3, x0
	ldr	x2, [x19]
	add	x1, x1, :lo12:.LANCHOR0
	adrp	x0, .LC5
	add	x1, x1, 96
	add	x0, x0, :lo12:.LC5
	bl	printk
.LVL109:
	.loc 1 130 0
	bl	dump_stack
.LVL110:
	.loc 1 131 0
	mov	w0, -22
	b	.L67
.LBE209:
.LBE211:
	.cfi_endproc
.LFE2969:
	.size	blk_busy_idle_event_unsubscriber, .-blk_busy_idle_event_unsubscriber
	.align	2
	.global	blk_lld_busy_idle_event_subscriber
	.type	blk_lld_busy_idle_event_subscriber, %function
blk_lld_busy_idle_event_subscriber:
.LFB2968:
	.loc 1 436 0
	.cfi_startproc
.LVL111:
	stp	x29, x30, [sp, -16]!
	.cfi_def_cfa_offset 16
	.cfi_offset 29, -16
	.cfi_offset 30, -8
	mov	x3, x1
	mov	x4, x0
	add	x29, sp, 0
	.cfi_def_cfa_register 29
.LBB214:
.LBB215:
	.loc 1 83 0
	ldr	x2, [x1]
	cbz	x2, .L72
	.loc 1 83 0 is_stmt 0 discriminator 1
	ldr	x5, [x1,88]
	cbz	x5, .L72
	.loc 1 93 0 is_stmt 1
	ldr	x6, [x1,64]
	adrp	x5, hisi_blk_busy_idle_notify_handler
	add	x5, x5, :lo12:hisi_blk_busy_idle_notify_handler
	cmp	x6, x5
	bne	.L75
	.loc 1 94 0
	ldr	x3, [x1,8]
	.loc 1 104 0
	mov	w0, 0
	.loc 1 94 0
	cmp	x4, x3
	bne	.L80
.L74:
.LBE215:
.LBE214:
	.loc 1 438 0
	ldp	x29, x30, [sp], 16
	.cfi_remember_state
	.cfi_restore 30
	.cfi_restore 29
	.cfi_def_cfa 31, 0
	ret
.LVL112:
.L72:
	.cfi_restore_state
.LBB217:
.LBB216:
	.loc 1 84 0
	adrp	x1, .LANCHOR0
.LVL113:
	ldr	x3, [x3,88]
.LVL114:
	add	x1, x1, :lo12:.LANCHOR0
	adrp	x0, .LC7
	add	x1, x1, 136
	add	x0, x0, :lo12:.LC7
	bl	printk
.LVL115:
	.loc 1 89 0
	bl	dump_stack
.LVL116:
	.loc 1 90 0
	mov	w0, -22
	b	.L74
.LVL117:
.L80:
	.loc 1 95 0
	adrp	x1, .LANCHOR0
.LVL118:
	adrp	x0, .LC8
	add	x1, x1, :lo12:.LANCHOR0
	add	x0, x0, :lo12:.LC8
	add	x1, x1, 136
	bl	printk
.LVL119:
	.loc 1 100 0
	bl	dump_stack
.LVL120:
	.loc 1 101 0
	mov	w0, -1
	b	.L74
.LVL121:
.L75:
	bl	hisi_blk_busy_idle_event_register.part.3
.LVL122:
	b	.L74
.LBE216:
.LBE217:
	.cfi_endproc
.LFE2968:
	.size	blk_lld_busy_idle_event_subscriber, .-blk_lld_busy_idle_event_subscriber
	.align	2
	.global	blk_queue_busy_idle_event_subscriber
	.type	blk_queue_busy_idle_event_subscriber, %function
blk_queue_busy_idle_event_subscriber:
.LFB2967:
	.loc 1 427 0
	.cfi_startproc
.LVL123:
	stp	x29, x30, [sp, -32]!
	.cfi_def_cfa_offset 32
	.cfi_offset 29, -32
	.cfi_offset 30, -24
	add	x29, sp, 0
	.cfi_def_cfa_register 29
	.loc 1 427 0
	str	x1, [x29,24]
	.loc 1 428 0
	bl	hisi_blk_get_lld
.LVL124:
.LBB220:
.LBB221:
	.loc 1 83 0
	ldr	x1, [x29,24]
.LVL125:
.LBE221:
.LBE220:
	.loc 1 428 0
	mov	x4, x0
.LBB224:
.LBB222:
	.loc 1 83 0
	ldr	x2, [x1]
	cbz	x2, .L82
	.loc 1 83 0 is_stmt 0 discriminator 1
	ldr	x3, [x1,88]
	cbz	x3, .L82
	.loc 1 93 0 is_stmt 1
	ldr	x5, [x1,64]
	adrp	x3, hisi_blk_busy_idle_notify_handler
	add	x3, x3, :lo12:hisi_blk_busy_idle_notify_handler
	cmp	x5, x3
	bne	.L85
	.loc 1 94 0
	ldr	x3, [x1,8]
	.loc 1 104 0
	mov	w0, 0
	.loc 1 94 0
	cmp	x4, x3
	bne	.L90
.L84:
.LBE222:
.LBE224:
	.loc 1 429 0
	ldp	x29, x30, [sp], 32
	.cfi_remember_state
	.cfi_restore 30
	.cfi_restore 29
	.cfi_def_cfa 31, 0
	ret
.L82:
	.cfi_restore_state
.LBB225:
.LBB223:
	.loc 1 84 0
	ldr	x3, [x1,88]
	adrp	x1, .LANCHOR0
.LVL126:
	add	x1, x1, :lo12:.LANCHOR0
	adrp	x0, .LC7
	add	x1, x1, 136
	add	x0, x0, :lo12:.LC7
	bl	printk
.LVL127:
	.loc 1 89 0
	bl	dump_stack
.LVL128:
	.loc 1 90 0
	mov	w0, -22
	b	.L84
.LVL129:
.L90:
	.loc 1 95 0
	adrp	x1, .LANCHOR0
.LVL130:
	adrp	x0, .LC8
	add	x1, x1, :lo12:.LANCHOR0
	add	x0, x0, :lo12:.LC8
	add	x1, x1, 136
	bl	printk
.LVL131:
	.loc 1 100 0
	bl	dump_stack
.LVL132:
	.loc 1 101 0
	mov	w0, -1
	b	.L84
.LVL133:
.L85:
	bl	hisi_blk_busy_idle_event_register.part.3
.LVL134:
	b	.L84
.LBE223:
.LBE225:
	.cfi_endproc
.LFE2967:
	.size	blk_queue_busy_idle_event_subscriber, .-blk_queue_busy_idle_event_subscriber
	.align	2
	.global	blk_busy_idle_event_subscriber
	.type	blk_busy_idle_event_subscriber, %function
blk_busy_idle_event_subscriber:
.LFB2966:
	.loc 1 418 0
	.cfi_startproc
.LVL135:
	stp	x29, x30, [sp, -32]!
	.cfi_def_cfa_offset 32
	.cfi_offset 29, -32
	.cfi_offset 30, -24
	add	x29, sp, 0
	.cfi_def_cfa_register 29
.LBB230:
.LBB231:
	.loc 5 1264 0
	ldr	x0, [x0,168]
.LVL136:
.LBE231:
.LBE230:
	.loc 1 418 0
	str	x1, [x29,24]
	.loc 1 419 0 discriminator 1
	ldr	x0, [x0,1048]
	bl	hisi_blk_get_lld
.LVL137:
	mov	x4, x0
.LBB232:
.LBB233:
	.loc 1 83 0
	ldr	x1, [x29,24]
.LVL138:
	ldr	x2, [x1]
	cbz	x2, .L92
	.loc 1 83 0 is_stmt 0 discriminator 1
	ldr	x3, [x1,88]
	cbz	x3, .L92
	.loc 1 93 0 is_stmt 1
	ldr	x5, [x1,64]
	adrp	x3, hisi_blk_busy_idle_notify_handler
	add	x3, x3, :lo12:hisi_blk_busy_idle_notify_handler
	cmp	x5, x3
	bne	.L95
	.loc 1 94 0
	ldr	x3, [x1,8]
	.loc 1 104 0
	mov	w0, 0
	.loc 1 94 0
	cmp	x4, x3
	bne	.L100
.L94:
.LBE233:
.LBE232:
	.loc 1 420 0
	ldp	x29, x30, [sp], 32
	.cfi_remember_state
	.cfi_restore 30
	.cfi_restore 29
	.cfi_def_cfa 31, 0
	ret
.L92:
	.cfi_restore_state
.LBB235:
.LBB234:
	.loc 1 84 0
	ldr	x3, [x1,88]
	adrp	x1, .LANCHOR0
.LVL139:
	add	x1, x1, :lo12:.LANCHOR0
	adrp	x0, .LC7
	add	x1, x1, 136
	add	x0, x0, :lo12:.LC7
	bl	printk
.LVL140:
	.loc 1 89 0
	bl	dump_stack
.LVL141:
	.loc 1 90 0
	mov	w0, -22
	b	.L94
.LVL142:
.L100:
	.loc 1 95 0
	adrp	x1, .LANCHOR0
.LVL143:
	adrp	x0, .LC8
	add	x1, x1, :lo12:.LANCHOR0
	add	x0, x0, :lo12:.LC8
	add	x1, x1, 136
	bl	printk
.LVL144:
	.loc 1 100 0
	bl	dump_stack
.LVL145:
	.loc 1 101 0
	mov	w0, -1
	b	.L94
.LVL146:
.L95:
	bl	hisi_blk_busy_idle_event_register.part.3
.LVL147:
	b	.L94
.LBE234:
.LBE235:
	.cfi_endproc
.LFE2966:
	.size	blk_busy_idle_event_subscriber, .-blk_busy_idle_event_subscriber
	.align	2
	.global	hisi_blk_busy_idle_event_register
	.type	hisi_blk_busy_idle_event_register, %function
hisi_blk_busy_idle_event_register:
.LFB2953:
	.loc 1 82 0
	.cfi_startproc
.LVL148:
	stp	x29, x30, [sp, -16]!
	.cfi_def_cfa_offset 16
	.cfi_offset 29, -16
	.cfi_offset 30, -8
	mov	x3, x1
	mov	x4, x0
	add	x29, sp, 0
	.cfi_def_cfa_register 29
	.loc 1 83 0
	ldr	x2, [x1]
	cbz	x2, .L102
	.loc 1 83 0 is_stmt 0 discriminator 1
	ldr	x5, [x1,88]
	cbz	x5, .L102
	.loc 1 93 0 is_stmt 1
	ldr	x6, [x1,64]
	adrp	x5, hisi_blk_busy_idle_notify_handler
	add	x5, x5, :lo12:hisi_blk_busy_idle_notify_handler
	cmp	x6, x5
	bne	.L105
	.loc 1 94 0
	ldr	x3, [x1,8]
	.loc 1 104 0
	mov	w0, 0
	.loc 1 94 0
	cmp	x3, x4
	bne	.L110
.L104:
	.loc 1 118 0
	ldp	x29, x30, [sp], 16
	.cfi_remember_state
	.cfi_restore 30
	.cfi_restore 29
	.cfi_def_cfa 31, 0
	ret
.LVL149:
.L102:
	.cfi_restore_state
	.loc 1 84 0
	adrp	x1, .LANCHOR0
.LVL150:
	ldr	x3, [x3,88]
.LVL151:
	add	x1, x1, :lo12:.LANCHOR0
	adrp	x0, .LC7
	add	x1, x1, 136
	add	x0, x0, :lo12:.LC7
	bl	printk
.LVL152:
	.loc 1 89 0
	bl	dump_stack
.LVL153:
	.loc 1 90 0
	mov	w0, -22
	b	.L104
.LVL154:
.L110:
	.loc 1 95 0
	adrp	x1, .LANCHOR0
.LVL155:
	adrp	x0, .LC8
	add	x1, x1, :lo12:.LANCHOR0
	add	x0, x0, :lo12:.LC8
	add	x1, x1, 136
	bl	printk
.LVL156:
	.loc 1 100 0
	bl	dump_stack
.LVL157:
	.loc 1 101 0
	mov	w0, -1
	b	.L104
.LVL158:
.L105:
	bl	hisi_blk_busy_idle_event_register.part.3
.LVL159:
	b	.L104
	.cfi_endproc
.LFE2953:
	.size	hisi_blk_busy_idle_event_register, .-hisi_blk_busy_idle_event_register
	.align	2
	.global	hisi_blk_busy_idle_event_unregister
	.type	hisi_blk_busy_idle_event_unregister, %function
hisi_blk_busy_idle_event_unregister:
.LFB2954:
	.loc 1 121 0
	.cfi_startproc
.LVL160:
	stp	x29, x30, [sp, -32]!
	.cfi_def_cfa_offset 32
	.cfi_offset 29, -32
	.cfi_offset 30, -24
	add	x29, sp, 0
	.cfi_def_cfa_register 29
	str	x19, [sp,16]
	.cfi_offset 19, -16
	.loc 1 122 0
	adrp	x19, hisi_blk_busy_idle_notify_handler
	add	x19, x19, :lo12:hisi_blk_busy_idle_notify_handler
	ldr	x2, [x1,64]
	cmp	x2, x19
	bne	.L114
	.loc 1 124 0
	ldr	x4, [x1,8]
	mov	x3, x0
	mov	x19, x1
	cmp	x4, x0
	bne	.L115
	.loc 1 134 0
	add	x1, x1, 64
.LVL161:
	add	x0, x4, 176
	bl	blocking_notifier_chain_unregister
.LVL162:
	.loc 1 135 0
	str	xzr, [x19]
	.loc 1 139 0
	adrp	x0, .LC6
	.loc 1 136 0
	str	xzr, [x19,64]
	.loc 1 139 0
	add	x0, x0, :lo12:.LC6
	mov	x1, 0
	.loc 1 137 0
	str	xzr, [x19,8]
	.loc 1 139 0
	bl	printk
.LVL163:
	.loc 1 140 0
	mov	w0, 0
.L112:
	.loc 1 141 0
	ldr	x19, [sp,16]
	.cfi_remember_state
	.cfi_restore 19
.LVL164:
	ldp	x29, x30, [sp], 32
	.cfi_restore 30
	.cfi_restore 29
	.cfi_def_cfa 31, 0
	ret
.LVL165:
.L114:
	.cfi_restore_state
	.loc 1 123 0
	mov	w0, -22
.LVL166:
	.loc 1 141 0
	ldr	x19, [sp,16]
	.cfi_remember_state
	.cfi_restore 19
	ldp	x29, x30, [sp], 32
	.cfi_restore 29
	.cfi_restore 30
	.cfi_def_cfa 31, 0
	ret
.LVL167:
.L115:
	.cfi_restore_state
	.loc 1 125 0
	ldr	x2, [x1]
	adrp	x1, .LANCHOR0
	add	x1, x1, :lo12:.LANCHOR0
	adrp	x0, .LC5
.LVL168:
	add	x1, x1, 96
	add	x0, x0, :lo12:.LC5
	bl	printk
.LVL169:
	.loc 1 130 0
	bl	dump_stack
.LVL170:
	.loc 1 131 0
	mov	w0, -22
	b	.L112
	.cfi_endproc
.LFE2954:
	.size	hisi_blk_busy_idle_event_unregister, .-hisi_blk_busy_idle_event_unregister
	.align	2
	.global	blk_lld_idle_notify
	.type	blk_lld_idle_notify, %function
blk_lld_idle_notify:
.LFB2956:
	.loc 1 171 0
	.cfi_startproc
.LVL171:
	stp	x29, x30, [sp, -48]!
	.cfi_def_cfa_offset 48
	.cfi_offset 29, -48
	.cfi_offset 30, -40
	add	x29, sp, 0
	.cfi_def_cfa_register 29
	str	x19, [sp,16]
	.cfi_offset 19, -32
	.loc 1 172 0
	ldr	w1, [x0]
	cmp	w1, 122
	bne	.L116
	.loc 1 173 0
	adrp	x1, .LANCHOR1
	mov	x19, x0
.LBB236:
.LBB237:
	.file 6 "/mnt/disk/jenkins/ci/workspace/chipset_9.1.0_boston/opensource/component_code/vendor/huawei/extra/build/build_script/kirin_kernel_release/kernel/include/linux/jiffies.h"
	.loc 6 364 0
	ldr	w0, [x0,168]
.LVL172:
.LBE237:
.LBE236:
	.loc 1 173 0
	ldr	x1, [x1,#:lo12:.LANCHOR1]
	str	x1, [x29,40]
.LBB239:
.LBB238:
	.loc 6 364 0
	bl	__msecs_to_jiffies
.LVL173:
	mov	x3, x0
.LBE238:
.LBE239:
.LBB240:
.LBB241:
	.loc 3 492 0
	ldr	x1, [x29,40]
	mov	w0, 8
	add	x2, x19, 72
	bl	queue_delayed_work_on
.LVL174:
.L116:
.LBE241:
.LBE240:
	.loc 1 175 0
	ldr	x19, [sp,16]
	.cfi_restore 19
.LVL175:
	ldp	x29, x30, [sp], 48
	.cfi_restore 30
	.cfi_restore 29
	.cfi_def_cfa 31, 0
	ret
	.cfi_endproc
.LFE2956:
	.size	blk_lld_idle_notify, .-blk_lld_idle_notify
	.align	2
	.type	hisi_blk_busy_idle_end_rq, %function
hisi_blk_busy_idle_end_rq:
.LFB2961:
	.loc 1 299 0
	.cfi_startproc
.LVL176:
	stp	x29, x30, [sp, -32]!
	.cfi_def_cfa_offset 32
	.cfi_offset 29, -32
	.cfi_offset 30, -24
	add	x29, sp, 0
	.cfi_def_cfa_register 29
	stp	x19, x20, [sp,16]
	.cfi_offset 19, -16
	.cfi_offset 20, -8
	.loc 1 299 0
	mov	x19, x0
	mov	w20, w1
	.loc 1 300 0
	ldr	x0, [x0,64]
.LVL177:
	bl	hisi_blk_get_lld
.LVL178:
.LBB242:
.LBB243:
	.loc 1 181 0
	ldr	x2, [x0,24]
	tbz	x2, 4, .L120
	.loc 1 184 0
	ldrb	w2, [x0,64]
	cbz	w2, .L127
.LVL179:
.L120:
.LBE243:
.LBE242:
	.loc 1 316 0
	ldr	x2, [x19,288]
.LVL180:
	cbz	x2, .L118
	.loc 1 317 0
	mov	x0, x19
.LVL181:
	mov	w1, w20
	blr	x2
.LVL182:
.L118:
	.loc 1 318 0
	ldp	x19, x20, [sp,16]
	.cfi_remember_state
	.cfi_restore 20
	.cfi_restore 19
.LVL183:
	ldp	x29, x30, [sp], 32
	.cfi_restore 30
	.cfi_restore 29
	.cfi_def_cfa 31, 0
	ret
.LVL184:
.L127:
	.cfi_restore_state
.LBB250:
.LBB249:
.LBB244:
.LBB245:
.LBB246:
	.loc 4 247 0 discriminator 4
	ldr	w2, [x0,256]
.LBE246:
.LBE245:
.LBE244:
	.loc 1 187 0 discriminator 5
	cbz	w2, .L128
.LBB247:
.LBB248:
	.file 7 "/mnt/disk/jenkins/ci/workspace/chipset_9.1.0_boston/opensource/component_code/vendor/huawei/extra/build/build_script/kirin_kernel_release/kernel/arch/arm64/include/asm/atomic_ll_sc.h"
	.loc 7 114 0
	add	x1, x0, 256
#APP
// 114 "/mnt/disk/jenkins/ci/workspace/chipset_9.1.0_boston/opensource/component_code/vendor/huawei/extra/build/build_script/kirin_kernel_release/kernel/arch/arm64/include/asm/atomic_ll_sc.h" 1
	// atomic_sub_return
	prfm	pstl1strm, [x1]
1:	ldxr	w2, [x1]
	sub	w2, w2, 1
	stlxr	w3, w2, [x1]
	cbnz	w3, 1b
	dmb ish
// 0 "" 2
.LVL185:
#NO_APP
.LBE248:
.LBE247:
	.loc 1 196 0
	cbnz	w2, .L120
	.loc 1 197 0
	bl	blk_lld_idle_notify
.LVL186:
	b	.L120
.LVL187:
.L128:
	.loc 1 188 0
	adrp	x1, .LANCHOR0
	adrp	x0, .LC9
.LVL188:
	add	x1, x1, :lo12:.LANCHOR0
	add	x0, x0, :lo12:.LC9
	add	x1, x1, 176
	bl	printk
.LVL189:
	b	.L120
.LBE249:
.LBE250:
	.cfi_endproc
.LFE2961:
	.size	hisi_blk_busy_idle_end_rq, .-hisi_blk_busy_idle_end_rq
	.align	2
	.global	hisi_blk_busy_idle_check_bio
	.type	hisi_blk_busy_idle_check_bio, %function
hisi_blk_busy_idle_check_bio:
.LFB2959:
	.loc 1 262 0
	.cfi_startproc
.LVL190:
	stp	x29, x30, [sp, -64]!
	.cfi_def_cfa_offset 64
	.cfi_offset 29, -64
	.cfi_offset 30, -56
	add	x29, sp, 0
	.cfi_def_cfa_register 29
	stp	x19, x20, [sp,16]
	str	x21, [sp,32]
	.cfi_offset 19, -48
	.cfi_offset 20, -40
	.cfi_offset 21, -32
	.loc 1 262 0
	mov	x20, x0
	str	x1, [x29,56]
	.loc 1 263 0
	bl	hisi_blk_get_lld
.LVL191:
	.loc 1 266 0
	ldr	x1, [x29,56]
.LVL192:
	.loc 1 263 0
	mov	x19, x0
.LVL193:
	.loc 1 266 0
	ldrb	w0, [x1,144]
	.loc 1 264 0
	str	x20, [x1,88]
	.loc 1 266 0
	tbnz	x0, 0, .L129
	.loc 1 268 0
	orr	w0, w0, 1
	strb	w0, [x1,144]
.LBB251:
.LBB252:
	.loc 1 236 0
	ldr	x0, [x19,24]
	tbz	x0, 4, .L129
.LBB253:
.LBB254:
.LBB255:
	.loc 4 247 0 discriminator 4
	ldr	w0, [x19,256]
.LBE255:
.LBE254:
.LBE253:
	.loc 1 239 0 discriminator 5
	cbz	w0, .L142
.L133:
.LBB256:
.LBB257:
	.loc 7 113 0
	add	x2, x19, 256
#APP
// 113 "/mnt/disk/jenkins/ci/workspace/chipset_9.1.0_boston/opensource/component_code/vendor/huawei/extra/build/build_script/kirin_kernel_release/kernel/arch/arm64/include/asm/atomic_ll_sc.h" 1
	// atomic_add
	prfm	pstl1strm, [x2]
1:	ldxr	w0, [x2]
	add	w0, w0, 1
	stxr	w1, w0, [x2]
	cbnz	w1, 1b
// 0 "" 2
.LVL194:
#NO_APP
.L129:
.LBE257:
.LBE256:
.LBE252:
.LBE251:
	.loc 1 280 0
	ldp	x19, x20, [sp,16]
	.cfi_remember_state
	.cfi_restore 20
	.cfi_restore 19
.LVL195:
	ldr	x21, [sp,32]
	.cfi_restore 21
	ldp	x29, x30, [sp], 64
	.cfi_restore 30
	.cfi_restore 29
	.cfi_def_cfa 31, 0
	ret
.LVL196:
.L142:
	.cfi_restore_state
.LBB259:
.LBB258:
	.loc 1 240 0
	add	x21, x19, 264
	mov	x0, x21
	bl	mutex_lock
.LVL197:
	.loc 1 241 0
	add	x0, x19, 72
	bl	cancel_delayed_work
.LVL198:
	.loc 1 242 0
	ldr	w0, [x19,336]
	cmp	w0, 1
	beq	.L143
.L134:
	.loc 1 253 0
	mov	x0, x21
	bl	mutex_unlock
.LVL199:
	b	.L133
.L143:
	.loc 1 243 0
	str	wzr, [x19,336]
	.loc 1 244 0
	bl	ktime_get
.LVL200:
	str	x0, [x19,352]
	ldr	x1, [x19,344]
.LVL201:
	.loc 1 248 0
	cbz	x1, .L135
	.loc 1 249 0
	ldr	x2, [x19,368]
	sub	x0, x0, x1
	add	x0, x2, x0
	str	x0, [x19,368]
.L135:
	.loc 1 251 0
	add	x0, x19, 176
	mov	x1, 0
.LVL202:
	mov	x2, x20
	bl	blocking_notifier_call_chain
.LVL203:
	b	.L134
.LBE258:
.LBE259:
	.cfi_endproc
.LFE2959:
	.size	hisi_blk_busy_idle_check_bio, .-hisi_blk_busy_idle_check_bio
	.align	2
	.global	hisi_blk_busy_idle_check_request_bio
	.type	hisi_blk_busy_idle_check_request_bio, %function
hisi_blk_busy_idle_check_request_bio:
.LFB2960:
	.loc 1 286 0
	.cfi_startproc
.LVL204:
	stp	x29, x30, [sp, -32]!
	.cfi_def_cfa_offset 32
	.cfi_offset 29, -32
	.cfi_offset 30, -24
	add	x29, sp, 0
	.cfi_def_cfa_register 29
	stp	x19, x20, [sp,16]
	.cfi_offset 19, -16
	.cfi_offset 20, -8
	.loc 1 286 0
	mov	x20, x0
	.loc 1 287 0
	ldr	x19, [x1,120]
.LVL205:
	.loc 1 288 0
	cbz	x19, .L147
.L146:
	.loc 1 290 0
	mov	x1, x19
.LVL206:
	mov	x0, x20
	bl	hisi_blk_busy_idle_check_bio
.LVL207:
	.loc 1 291 0
	ldr	x19, [x19]
	.loc 1 292 0 discriminator 1
	cbnz	x19, .L146
	.loc 1 293 0
	mov	w0, 1
	.loc 1 296 0
	ldp	x19, x20, [sp,16]
	.cfi_remember_state
	.cfi_restore 20
	.cfi_restore 19
.LVL208:
	ldp	x29, x30, [sp], 32
	.cfi_restore 30
	.cfi_restore 29
	.cfi_def_cfa 31, 0
	ret
.LVL209:
.L147:
	.cfi_restore_state
	.loc 1 295 0
	mov	w0, 0
	.loc 1 296 0
	ldp	x19, x20, [sp,16]
	.cfi_restore 19
	.cfi_restore 20
.LVL210:
	ldp	x29, x30, [sp], 32
	.cfi_restore 29
	.cfi_restore 30
	.cfi_def_cfa 31, 0
	ret
	.cfi_endproc
.LFE2960:
	.size	hisi_blk_busy_idle_check_request_bio, .-hisi_blk_busy_idle_check_request_bio
	.align	2
	.global	hisi_blk_busy_idle_check_execute_request
	.type	hisi_blk_busy_idle_check_execute_request, %function
hisi_blk_busy_idle_check_execute_request:
.LFB2962:
	.loc 1 324 0
	.cfi_startproc
.LVL211:
	stp	x29, x30, [sp, -64]!
	.cfi_def_cfa_offset 64
	.cfi_offset 29, -64
	.cfi_offset 30, -56
	add	x29, sp, 0
	.cfi_def_cfa_register 29
	stp	x21, x22, [sp,32]
	stp	x19, x20, [sp,16]
	str	x23, [sp,48]
	.cfi_offset 21, -32
	.cfi_offset 22, -24
	.cfi_offset 19, -48
	.cfi_offset 20, -40
	.cfi_offset 23, -16
	.loc 1 324 0
	mov	x21, x1
	mov	x20, x0
	mov	x22, x2
.LBB260:
.LBB261:
	.loc 1 287 0
	ldr	x19, [x1,120]
.LVL212:
	.loc 1 288 0
	cbz	x19, .L150
.L151:
	.loc 1 290 0
	mov	x1, x19
	mov	x0, x20
	bl	hisi_blk_busy_idle_check_bio
.LVL213:
	.loc 1 291 0
	ldr	x19, [x19]
	.loc 1 292 0 discriminator 1
	cbnz	x19, .L151
.LBE261:
.LBE260:
	.loc 1 340 0
	str	x22, [x21,648]
	.loc 1 342 0
	ldp	x19, x20, [sp,16]
	.cfi_remember_state
	.cfi_restore 20
	.cfi_restore 19
.LVL214:
	ldp	x21, x22, [sp,32]
	.cfi_restore 22
	.cfi_restore 21
.LVL215:
	ldr	x23, [sp,48]
	.cfi_restore 23
	ldp	x29, x30, [sp], 64
	.cfi_restore 30
	.cfi_restore 29
	.cfi_def_cfa 31, 0
	ret
.LVL216:
.L150:
	.cfi_restore_state
.LBB262:
	.loc 1 326 0
	ldr	x0, [x1,64]
	bl	hisi_blk_get_lld
.LVL217:
	mov	x19, x0
.LVL218:
.LBB263:
.LBB264:
	.loc 1 236 0
	ldr	x0, [x0,24]
	tbz	x0, 4, .L157
.LBB265:
.LBB266:
.LBB267:
	.loc 4 247 0 discriminator 4
	ldr	w0, [x19,256]
.LBE267:
.LBE266:
.LBE265:
	.loc 1 239 0 discriminator 5
	cbz	w0, .L169
.L153:
.LBB268:
.LBB269:
	.loc 7 113 0
	add	x2, x19, 256
#APP
// 113 "/mnt/disk/jenkins/ci/workspace/chipset_9.1.0_boston/opensource/component_code/vendor/huawei/extra/build/build_script/kirin_kernel_release/kernel/arch/arm64/include/asm/atomic_ll_sc.h" 1
	// atomic_add
	prfm	pstl1strm, [x2]
1:	ldxr	w0, [x2]
	add	w0, w0, 1
	stxr	w1, w0, [x2]
	cbnz	w1, 1b
// 0 "" 2
.LVL219:
#NO_APP
.L157:
.LBE269:
.LBE268:
.LBE264:
.LBE263:
	.loc 1 337 0
	adrp	x0, hisi_blk_busy_idle_end_rq
.LVL220:
	.loc 1 338 0
	str	x22, [x21,288]
	.loc 1 337 0
	add	x0, x0, :lo12:hisi_blk_busy_idle_end_rq
	str	x0, [x21,648]
.LBE262:
	.loc 1 342 0
	ldp	x19, x20, [sp,16]
	.cfi_remember_state
	.cfi_restore 19
	.cfi_restore 20
.LVL221:
	ldp	x21, x22, [sp,32]
	.cfi_restore 21
	.cfi_restore 22
.LVL222:
	ldr	x23, [sp,48]
	.cfi_restore 23
	ldp	x29, x30, [sp], 64
	.cfi_restore 29
	.cfi_restore 30
	.cfi_def_cfa 31, 0
	ret
.LVL223:
.L169:
	.cfi_restore_state
.LBB272:
.LBB271:
.LBB270:
	.loc 1 240 0
	add	x23, x19, 264
	mov	x0, x23
	bl	mutex_lock
.LVL224:
	.loc 1 241 0
	add	x0, x19, 72
	bl	cancel_delayed_work
.LVL225:
	.loc 1 242 0
	ldr	w0, [x19,336]
	cmp	w0, 1
	beq	.L170
.L154:
	.loc 1 253 0
	mov	x0, x23
	bl	mutex_unlock
.LVL226:
	b	.L153
.L170:
	.loc 1 243 0
	str	wzr, [x19,336]
	.loc 1 244 0
	bl	ktime_get
.LVL227:
	str	x0, [x19,352]
	ldr	x1, [x19,344]
.LVL228:
	.loc 1 248 0
	cbz	x1, .L155
	.loc 1 249 0
	ldr	x2, [x19,368]
	sub	x0, x0, x1
	add	x0, x2, x0
	str	x0, [x19,368]
.L155:
	.loc 1 251 0
	add	x0, x19, 176
	mov	x1, 0
.LVL229:
	mov	x2, x20
	bl	blocking_notifier_call_chain
.LVL230:
	b	.L154
.LBE270:
.LBE271:
.LBE272:
	.cfi_endproc
.LFE2962:
	.size	hisi_blk_busy_idle_check_execute_request, .-hisi_blk_busy_idle_check_execute_request
	.align	2
	.global	hisi_blk_busy_idle_check_bio_endio
	.type	hisi_blk_busy_idle_check_bio_endio, %function
hisi_blk_busy_idle_check_bio_endio:
.LFB2963:
	.loc 1 348 0
	.cfi_startproc
.LVL231:
	stp	x29, x30, [sp, -32]!
	.cfi_def_cfa_offset 32
	.cfi_offset 29, -32
	.cfi_offset 30, -24
	add	x29, sp, 0
	.cfi_def_cfa_register 29
	str	x19, [sp,16]
	.cfi_offset 19, -16
	.loc 1 348 0
	mov	x19, x0
	.loc 1 349 0
	ldr	x0, [x0,8]
.LVL232:
	cbz	x0, .L181
.LBB273:
.LBB274:
	.loc 5 1264 0
	ldr	x0, [x0,168]
	ldr	x0, [x0,1048]
.LVL233:
.L173:
.LBE274:
.LBE273:
	.loc 1 350 0
	bl	hisi_blk_get_lld
.LVL234:
	.loc 1 352 0
	ldrb	w2, [x19,144]
	tbz	x2, 0, .L171
	.loc 1 367 0
	strb	wzr, [x19,144]
.LVL235:
.LBB275:
.LBB276:
	.loc 1 181 0
	ldr	x2, [x0,24]
	tbz	x2, 4, .L171
	.loc 1 184 0
	ldrb	w2, [x0,64]
	cbnz	w2, .L171
.LBB277:
.LBB278:
.LBB279:
	.loc 4 247 0 discriminator 4
	ldr	w2, [x0,256]
.LBE279:
.LBE278:
.LBE277:
	.loc 1 187 0 discriminator 5
	cbz	w2, .L182
.LBB280:
.LBB281:
	.loc 7 114 0
	add	x1, x0, 256
#APP
// 114 "/mnt/disk/jenkins/ci/workspace/chipset_9.1.0_boston/opensource/component_code/vendor/huawei/extra/build/build_script/kirin_kernel_release/kernel/arch/arm64/include/asm/atomic_ll_sc.h" 1
	// atomic_sub_return
	prfm	pstl1strm, [x1]
1:	ldxr	w2, [x1]
	sub	w2, w2, 1
	stlxr	w3, w2, [x1]
	cbnz	w3, 1b
	dmb ish
// 0 "" 2
.LVL236:
#NO_APP
.LBE281:
.LBE280:
	.loc 1 196 0
	cbz	w2, .L183
.L171:
.LBE276:
.LBE275:
	.loc 1 370 0
	ldr	x19, [sp,16]
	.cfi_remember_state
	.cfi_restore 19
.LVL237:
	ldp	x29, x30, [sp], 32
	.cfi_restore 30
	.cfi_restore 29
	.cfi_def_cfa 31, 0
	ret
.LVL238:
.L181:
	.cfi_restore_state
	.loc 1 349 0 discriminator 1
	ldr	x0, [x19,88]
.LVL239:
	b	.L173
.LVL240:
.L183:
.LBB283:
.LBB282:
	.loc 1 197 0
	bl	blk_lld_idle_notify
.LVL241:
	b	.L171
.LVL242:
.L182:
	.loc 1 188 0
	adrp	x1, .LANCHOR0
	adrp	x0, .LC9
.LVL243:
	add	x1, x1, :lo12:.LANCHOR0
	add	x0, x0, :lo12:.LC9
	add	x1, x1, 176
	bl	printk
.LVL244:
	b	.L171
.LBE282:
.LBE283:
	.cfi_endproc
.LFE2963:
	.size	hisi_blk_busy_idle_check_bio_endio, .-hisi_blk_busy_idle_check_bio_endio
	.align	2
	.global	hisi_blk_busy_idle_state_init
	.type	hisi_blk_busy_idle_state_init, %function
hisi_blk_busy_idle_state_init:
.LFB2965:
	.loc 1 384 0
	.cfi_startproc
.LVL245:
	stp	x29, x30, [sp, -32]!
	.cfi_def_cfa_offset 32
	.cfi_offset 29, -32
	.cfi_offset 30, -24
	add	x29, sp, 0
	.cfi_def_cfa_register 29
	stp	x19, x20, [sp,16]
	.cfi_offset 19, -16
	.cfi_offset 20, -8
	.loc 1 385 0
	adrp	x20, .LANCHOR1
	.loc 1 384 0
	mov	x19, x0
	.loc 1 385 0
	ldr	x0, [x20,#:lo12:.LANCHOR1]
.LVL246:
	cbz	x0, .L186
.L185:
	.loc 1 399 0
	add	x4, x19, 16
	.loc 1 398 0
	mov	w5, 5
.LBB284:
.LBB285:
.LBB286:
.LBB287:
.LBB288:
	.loc 4 276 0
	str	x4, [x19,16]
.LBE288:
.LBE287:
.LBE286:
.LBE285:
.LBE284:
	.loc 1 399 0 discriminator 2
	add	x0, x19, 40
.LBB290:
.LBB289:
	.file 8 "/mnt/disk/jenkins/ci/workspace/chipset_9.1.0_boston/opensource/component_code/vendor/huawei/extra/build/build_script/kirin_kernel_release/kernel/include/linux/list.h"
	.loc 8 28 0
	str	x4, [x19,24]
.LBE289:
.LBE290:
	.loc 1 399 0
	adrp	x4, hisi_blk_idle_notify_work
	add	x4, x4, :lo12:hisi_blk_idle_notify_work
	.loc 1 398 0
	str	w5, [x19,104]
	.loc 1 399 0
	str	x4, [x19,32]
	mov	x5, 68719476704
	.loc 1 399 0 is_stmt 0 discriminator 2
	mov	x3, 0
	.loc 1 399 0
	str	x5, [x19,8]
	.loc 1 399 0 discriminator 2
	mov	w1, 2097152
	mov	x2, 0
	.loc 1 387 0 is_stmt 1
	str	xzr, [x19,304]
.LBB291:
	.loc 1 401 0
	add	x20, x20, :lo12:.LANCHOR1
.LBE291:
	.loc 1 387 0
	str	xzr, [x19,296]
.LBB292:
	.loc 1 401 0
	add	x20, x20, 8
.LBE292:
	.loc 1 388 0
	str	xzr, [x19,280]
	str	xzr, [x19,288]
	.loc 1 397 0
	str	xzr, [x19,312]
	.loc 1 399 0 discriminator 2
	bl	init_timer_key
.LVL247:
.LBB293:
.LBB294:
.LBB295:
	.loc 4 275 0
	str	wzr, [x19,192]
.LBE295:
.LBE294:
.LBE293:
	.loc 1 399 0
	adrp	x3, delayed_work_timer_fn
.LBB296:
	.loc 1 401 0
	adrp	x1, .LC11
.LBE296:
	.loc 1 399 0
	add	x3, x3, :lo12:delayed_work_timer_fn
.LBB297:
	.loc 1 401 0
	add	x0, x19, 200
	mov	x2, x20
.LBE297:
	.loc 1 399 0
	str	x3, [x19,64]
.LBB298:
	.loc 1 401 0
	add	x1, x1, :lo12:.LC11
.LBE298:
	.loc 1 399 0
	add	x3, x19, 8
	str	x3, [x19,72]
.LBB299:
	.loc 1 401 0
	bl	__mutex_init
.LVL248:
.LBE299:
.LBB300:
	.loc 1 402 0
	adrp	x1, .LC12
	add	x0, x19, 112
	mov	x2, x20
	add	x1, x1, :lo12:.LC12
	bl	__init_rwsem
.LVL249:
.LBE300:
	str	xzr, [x19,184]
	.loc 1 403 0
	mov	w0, 1
	str	w0, [x19,272]
	.loc 1 412 0
	ldp	x19, x20, [sp,16]
	.cfi_remember_state
	.cfi_restore 20
	.cfi_restore 19
.LVL250:
	ldp	x29, x30, [sp], 32
	.cfi_restore 30
	.cfi_restore 29
	.cfi_def_cfa 31, 0
	ret
.LVL251:
.L186:
	.cfi_restore_state
	.loc 1 386 0
	adrp	x0, .LC10
	mov	w1, 24
	add	x0, x0, :lo12:.LC10
	mov	w2, 0
	mov	x3, 0
	mov	x4, 0
	bl	__alloc_workqueue_key
.LVL252:
	str	x0, [x20,#:lo12:.LANCHOR1]
	b	.L185
	.cfi_endproc
.LFE2965:
	.size	hisi_blk_busy_idle_state_init, .-hisi_blk_busy_idle_state_init
	.align	2
	.global	hisi_queue_busy_idle_enable_store
	.type	hisi_queue_busy_idle_enable_store, %function
hisi_queue_busy_idle_enable_store:
.LFB2977:
	.loc 1 536 0
	.cfi_startproc
.LVL253:
	stp	x29, x30, [sp, -64]!
	.cfi_def_cfa_offset 64
	.cfi_offset 29, -64
	.cfi_offset 30, -56
	add	x29, sp, 0
	.cfi_def_cfa_register 29
	stp	x19, x20, [sp,16]
	.cfi_offset 19, -48
	.cfi_offset 20, -40
	adrp	x19, __stack_chk_guard
	str	x21, [sp,32]
	.cfi_offset 21, -32
	.loc 1 536 0
	mov	x21, x0
	.loc 1 539 0
	add	x0, x29, 48
.LVL254:
	.loc 1 536 0
	mov	x20, x2
	ldr	x3, [x19,#:lo12:__stack_chk_guard]
	str	x3, [x29,56]
	.loc 1 539 0
	bl	queue_var_store
.LVL255:
	.loc 1 540 0
	tbnz	x0, #63, .L188
.LVL256:
	.loc 1 540 0 is_stmt 0 discriminator 1
	ldr	x0, [x29,48]
	cbnz	x0, .L194
.L188:
	.loc 1 544 0 is_stmt 1
	adrp	x1, .LANCHOR0
	adrp	x0, .LC14
	add	x1, x1, :lo12:.LANCHOR0
	add	x0, x0, :lo12:.LC14
	add	x1, x1, 192
	bl	printk
.LVL257:
.LBB303:
.LBB304:
	.loc 1 473 0
	mov	x0, x21
	bl	hisi_blk_get_lld
.LVL258:
	.loc 1 477 0
	ldr	x1, [x0,24]
	and	x1, x1, -17
	str	x1, [x0,24]
.L189:
.LBE304:
.LBE303:
	.loc 1 548 0
	ldr	x2, [x29,56]
	mov	x0, x20
.LVL259:
	ldr	x1, [x19,#:lo12:__stack_chk_guard]
	cmp	x2, x1
	bne	.L195
	ldp	x19, x20, [sp,16]
	.cfi_remember_state
	.cfi_restore 20
	.cfi_restore 19
.LVL260:
	ldr	x21, [sp,32]
	.cfi_restore 21
.LVL261:
	ldp	x29, x30, [sp], 64
	.cfi_restore 30
	.cfi_restore 29
	.cfi_def_cfa 31, 0
	ret
.LVL262:
.L194:
	.cfi_restore_state
	.loc 1 541 0
	adrp	x1, .LANCHOR0
	adrp	x0, .LC13
.LVL263:
	add	x1, x1, :lo12:.LANCHOR0
	add	x0, x0, :lo12:.LC13
	add	x1, x1, 192
	bl	printk
.LVL264:
	.loc 1 542 0
	mov	x0, x21
	mov	w1, 1
	bl	blk_queue_busy_idle_enable
.LVL265:
	b	.L189
.L195:
	.loc 1 548 0
	bl	__stack_chk_fail
.LVL266:
	.cfi_endproc
.LFE2977:
	.size	hisi_queue_busy_idle_enable_store, .-hisi_queue_busy_idle_enable_store
	.align	2
	.global	hisi_queue_busy_idle_statistic_reset_store
	.type	hisi_queue_busy_idle_statistic_reset_store, %function
hisi_queue_busy_idle_statistic_reset_store:
.LFB2978:
	.loc 1 551 0
	.cfi_startproc
.LVL267:
	stp	x29, x30, [sp, -80]!
	.cfi_def_cfa_offset 80
	.cfi_offset 29, -80
	.cfi_offset 30, -72
	add	x29, sp, 0
	.cfi_def_cfa_register 29
	stp	x19, x20, [sp,16]
	.cfi_offset 19, -64
	.cfi_offset 20, -56
	adrp	x19, __stack_chk_guard
	mov	x20, x2
	str	x21, [sp,32]
	.cfi_offset 21, -48
	.loc 1 551 0
	str	x1, [x29,56]
	ldr	x2, [x19,#:lo12:__stack_chk_guard]
.LVL268:
	str	x2, [x29,72]
	.loc 1 554 0
	bl	hisi_blk_get_lld
.LVL269:
	mov	x21, x0
.LVL270:
	.loc 1 555 0
	ldr	x1, [x29,56]
.LVL271:
	add	x0, x29, 64
	mov	x2, x20
	bl	queue_var_store
.LVL272:
	.loc 1 556 0
	tbnz	x0, #63, .L197
.LVL273:
	.loc 1 556 0 is_stmt 0 discriminator 1
	ldr	x0, [x29,64]
	cbnz	x0, .L202
.L197:
	.loc 1 564 0 is_stmt 1
	ldr	x2, [x29,72]
	mov	x0, x20
	ldr	x1, [x19,#:lo12:__stack_chk_guard]
	cmp	x2, x1
	bne	.L203
	ldp	x19, x20, [sp,16]
	.cfi_remember_state
	.cfi_restore 20
	.cfi_restore 19
.LVL274:
	ldr	x21, [sp,32]
	.cfi_restore 21
.LVL275:
	ldp	x29, x30, [sp], 80
	.cfi_restore 30
	.cfi_restore 29
	.cfi_def_cfa 31, 0
	ret
.LVL276:
.L203:
	.cfi_restore_state
	bl	__stack_chk_fail
.LVL277:
.L202:
	.loc 1 557 0
	adrp	x1, .LANCHOR0
	adrp	x0, .LC15
.LVL278:
	add	x1, x1, :lo12:.LANCHOR0
	add	x0, x0, :lo12:.LC15
	add	x1, x1, 232
	bl	printk
.LVL279:
	.loc 1 558 0
	str	xzr, [x21,368]
	.loc 1 560 0
	add	x0, x21, 456
	.loc 1 558 0
	str	xzr, [x21,360]
	.loc 1 559 0
	str	xzr, [x21,376]
	.loc 1 560 0
	stp	xzr, xzr, [x0]
	stp	xzr, xzr, [x0,16]
	stp	xzr, xzr, [x0,32]
	stp	xzr, xzr, [x0,48]
	str	xzr, [x21,520]
	.loc 1 561 0
	str	xzr, [x21,528]
	b	.L197
	.cfi_endproc
.LFE2978:
	.size	hisi_queue_busy_idle_statistic_reset_store, .-hisi_queue_busy_idle_statistic_reset_store
	.align	2
	.global	hisi_queue_busy_idle_statistic_show
	.type	hisi_queue_busy_idle_statistic_show, %function
hisi_queue_busy_idle_statistic_show:
.LFB2979:
	.loc 1 567 0
	.cfi_startproc
.LVL280:
	stp	x29, x30, [sp, -96]!
	.cfi_def_cfa_offset 96
	.cfi_offset 29, -96
	.cfi_offset 30, -88
	add	x29, sp, 0
	.cfi_def_cfa_register 29
	stp	x21, x22, [sp,32]
	.cfi_offset 21, -64
	.cfi_offset 22, -56
	adrp	x22, __stack_chk_guard
	stp	x19, x20, [sp,16]
	.cfi_offset 19, -80
	.cfi_offset 20, -72
	mov	x20, x1
	ldr	x1, [x22,#:lo12:__stack_chk_guard]
.LVL281:
	stp	x23, x24, [sp,48]
	.cfi_offset 23, -48
	.cfi_offset 24, -40
	.loc 1 567 0
	str	x1, [x29,88]
	.loc 1 571 0
	bl	hisi_blk_get_lld
.LVL282:
	mov	x24, x0
.LVL283:
.LBB305:
.LBB306:
.LBB307:
.LBB308:
.LBB309:
	.loc 2 202 0
	mov	x0, 13531
	movk	x0, 0xd7b6, lsl 16
	ldr	x3, [x24,360]
	movk	x0, 0xde82, lsl 32
	movk	x0, 0x431b, lsl 48
	smulh	x1, x3, x0
	asr	x1, x1, 18
	sub	x3, x1, x3, asr 63
.LVL284:
.LBE309:
.LBE308:
.LBE307:
	.loc 1 522 0
	cmp	x3, 999
	bgt	.L205
	.loc 1 523 0
	mov	w0, 109
	.loc 1 525 0
	strb	wzr, [x29,74]
	.loc 1 523 0
	strb	w0, [x29,72]
	.loc 1 524 0
	mov	w0, 115
	strb	w0, [x29,73]
.L206:
.LBE306:
.LBE305:
.LBB311:
.LBB312:
.LBB313:
.LBB314:
.LBB315:
	.loc 2 202 0
	mov	x0, 13531
	ldr	x5, [x24,368]
	movk	x0, 0xd7b6, lsl 16
	movk	x0, 0xde82, lsl 32
	movk	x0, 0x431b, lsl 48
	smulh	x0, x5, x0
	asr	x0, x0, 18
	sub	x5, x0, x5, asr 63
.LVL285:
.LBE315:
.LBE314:
.LBE313:
	.loc 1 522 0
	cmp	x5, 999
	ble	.L210
	.loc 1 530 0
	mov	x0, 63439
	.loc 1 528 0
	mov	w1, 115
	.loc 1 530 0
	movk	x0, 0xe353, lsl 16
	.loc 1 528 0
	strb	w1, [x29,80]
	.loc 1 530 0
	movk	x0, 0x9ba5, lsl 32
	.loc 1 529 0
	strb	wzr, [x29,82]
	.loc 1 530 0
	movk	x0, 0x20c4, lsl 48
	.loc 1 529 0
	strb	wzr, [x29,81]
	.loc 1 530 0
	smulh	x0, x5, x0
	asr	x0, x0, 7
	sub	x5, x0, x5, asr 63
.L208:
.LBE312:
.LBE311:
	.loc 1 573 0 discriminator 2
	adrp	x2, .LC16
	add	x4, x29, 72
	add	x6, x29, 80
	mov	x1, 4096
	add	x2, x2, :lo12:.LC16
	mov	x0, x20
	.loc 1 575 0
	mov	x21, x1
	.loc 1 573 0 discriminator 2
	bl	snprintf
.LVL286:
	.loc 1 573 0 is_stmt 0
	sxtw	x19, w0
	.loc 1 575 0 is_stmt 1
	ldr	x3, [x24,376]
	adrp	x2, .LC17
	sub	x1, x21, x19
	add	x2, x2, :lo12:.LC17
	add	x0, x20, x19
	bl	snprintf
.LVL287:
	add	x19, x19, x0, sxtw
	.loc 1 576 0
	adrp	x2, .LC18
	sub	x1, x21, x19
	add	x2, x2, :lo12:.LC18
	add	x0, x20, x19
	bl	snprintf
.LVL288:
	add	x19, x19, x0, sxtw
	.loc 1 577 0
	ldr	x3, [x24,528]
	adrp	x2, .LC19
	sub	x1, x21, x19
	add	x2, x2, :lo12:.LC19
	add	x0, x20, x19
	bl	snprintf
.LVL289:
	add	x19, x19, x0, sxtw
	.loc 1 578 0
	ldr	x3, [x24,456]
	adrp	x2, .LC20
	sub	x1, x21, x19
	add	x2, x2, :lo12:.LC20
	add	x0, x20, x19
	bl	snprintf
.LVL290:
	add	x19, x19, x0, sxtw
	.loc 1 579 0
	ldr	x3, [x24,464]
	adrp	x2, .LC21
	sub	x1, x21, x19
	add	x2, x2, :lo12:.LC21
	add	x0, x20, x19
	bl	snprintf
.LVL291:
	add	x19, x19, x0, sxtw
	.loc 1 580 0
	ldr	x3, [x24,472]
	adrp	x2, .LC22
	sub	x1, x21, x19
	add	x2, x2, :lo12:.LC22
	add	x0, x20, x19
	bl	snprintf
.LVL292:
	add	x19, x19, x0, sxtw
	.loc 1 581 0
	ldr	x3, [x24,480]
	adrp	x2, .LC23
	sub	x1, x21, x19
	add	x2, x2, :lo12:.LC23
	add	x0, x20, x19
	bl	snprintf
.LVL293:
	add	x19, x19, x0, sxtw
	.loc 1 582 0
	ldr	x3, [x24,488]
	adrp	x2, .LC24
	sub	x1, x21, x19
	add	x2, x2, :lo12:.LC24
	add	x0, x20, x19
	bl	snprintf
.LVL294:
	add	x19, x19, x0, sxtw
	.loc 1 583 0
	ldr	x3, [x24,496]
	adrp	x2, .LC25
	sub	x1, x21, x19
	add	x2, x2, :lo12:.LC25
	add	x0, x20, x19
	bl	snprintf
.LVL295:
	add	x19, x19, x0, sxtw
	.loc 1 584 0
	ldr	x3, [x24,504]
	adrp	x2, .LC26
	sub	x1, x21, x19
	add	x2, x2, :lo12:.LC26
	add	x0, x20, x19
	bl	snprintf
.LVL296:
	add	x19, x19, x0, sxtw
	.loc 1 585 0
	ldr	x3, [x24,512]
	adrp	x2, .LC27
	sub	x1, x21, x19
	add	x2, x2, :lo12:.LC27
	add	x0, x20, x19
	bl	snprintf
.LVL297:
	add	x19, x19, x0, sxtw
	.loc 1 586 0
	ldr	x3, [x24,520]
	adrp	x2, .LC28
	sub	x1, x21, x19
	add	x2, x2, :lo12:.LC28
	add	x0, x20, x19
	bl	snprintf
.LVL298:
	add	x19, x19, x0, sxtw
	.loc 1 587 0
	ldr	x3, [x24,376]
	adrp	x2, .LC29
	add	x2, x2, :lo12:.LC29
	sub	x1, x21, x19
	add	x0, x20, x19
	bl	snprintf
.LVL299:
	.loc 1 589 0
	add	x0, x19, x0, sxtw
	ldr	x2, [x29,88]
	ldr	x1, [x22,#:lo12:__stack_chk_guard]
	cmp	x2, x1
	bne	.L211
	ldp	x19, x20, [sp,16]
	.cfi_remember_state
	.cfi_restore 20
	.cfi_restore 19
.LVL300:
	ldp	x21, x22, [sp,32]
	.cfi_restore 22
	.cfi_restore 21
	ldp	x23, x24, [sp,48]
	.cfi_restore 24
	.cfi_restore 23
.LVL301:
	ldp	x29, x30, [sp], 96
	.cfi_restore 30
	.cfi_restore 29
	.cfi_def_cfa 31, 0
	ret
.LVL302:
.L205:
	.cfi_restore_state
.LBB317:
.LBB310:
	.loc 1 530 0
	mov	x0, 63439
	.loc 1 528 0
	mov	w1, 115
	.loc 1 530 0
	movk	x0, 0xe353, lsl 16
	.loc 1 528 0
	strb	w1, [x29,72]
	.loc 1 530 0
	movk	x0, 0x9ba5, lsl 32
	.loc 1 529 0
	strb	wzr, [x29,74]
	.loc 1 530 0
	movk	x0, 0x20c4, lsl 48
	.loc 1 529 0
	strb	wzr, [x29,73]
	.loc 1 530 0
	smulh	x0, x3, x0
	asr	x0, x0, 7
	sub	x3, x0, x3, asr 63
	b	.L206
.LVL303:
.L210:
.LBE310:
.LBE317:
.LBB318:
.LBB316:
	.loc 1 523 0
	mov	w0, 109
	.loc 1 525 0
	strb	wzr, [x29,82]
	.loc 1 523 0
	strb	w0, [x29,80]
	.loc 1 524 0
	mov	w0, 115
	strb	w0, [x29,81]
	b	.L208
.LVL304:
.L211:
.LBE316:
.LBE318:
	.loc 1 589 0
	bl	__stack_chk_fail
.LVL305:
	.cfi_endproc
.LFE2979:
	.size	hisi_queue_busy_idle_statistic_show, .-hisi_queue_busy_idle_statistic_show
	.align	2
	.global	hisi_queue_hw_idle_enable_show
	.type	hisi_queue_hw_idle_enable_show, %function
hisi_queue_hw_idle_enable_show:
.LFB2980:
	.loc 1 592 0
	.cfi_startproc
.LVL306:
	stp	x29, x30, [sp, -32]!
	.cfi_def_cfa_offset 32
	.cfi_offset 29, -32
	.cfi_offset 30, -24
	add	x29, sp, 0
	.cfi_def_cfa_register 29
	.loc 1 592 0
	str	x1, [x29,24]
	.loc 1 593 0
	bl	hisi_blk_get_lld
.LVL307:
	.loc 1 595 0
	ldrb	w0, [x0,64]
	ldr	x1, [x29,24]
.LVL308:
	cbnz	w0, .L214
	.loc 1 595 0 is_stmt 0 discriminator 2
	adrp	x3, .LC31
	.loc 1 595 0 discriminator 4
	adrp	x2, .LC32
	.loc 1 595 0 discriminator 2
	add	x3, x3, :lo12:.LC31
	.loc 1 595 0 discriminator 4
	mov	x0, x1
	add	x2, x2, :lo12:.LC32
	mov	x1, 4096
.LVL309:
	bl	snprintf
.LVL310:
	.loc 1 596 0 is_stmt 1
	sxtw	x0, w0
	ldp	x29, x30, [sp], 32
	.cfi_remember_state
	.cfi_restore 30
	.cfi_restore 29
	.cfi_def_cfa 31, 0
	ret
.LVL311:
.L214:
	.cfi_restore_state
	.loc 1 595 0 discriminator 1
	adrp	x3, .LC30
	.loc 1 595 0 is_stmt 0 discriminator 4
	adrp	x2, .LC32
	.loc 1 595 0 discriminator 1
	add	x3, x3, :lo12:.LC30
	.loc 1 595 0 discriminator 4
	mov	x0, x1
	add	x2, x2, :lo12:.LC32
	mov	x1, 4096
.LVL312:
	bl	snprintf
.LVL313:
	.loc 1 596 0 is_stmt 1
	sxtw	x0, w0
	ldp	x29, x30, [sp], 32
	.cfi_restore 29
	.cfi_restore 30
	.cfi_def_cfa 31, 0
	ret
	.cfi_endproc
.LFE2980:
	.size	hisi_queue_hw_idle_enable_show, .-hisi_queue_hw_idle_enable_show
	.align	2
	.global	hisi_queue_idle_state_show
	.type	hisi_queue_idle_state_show, %function
hisi_queue_idle_state_show:
.LFB2981:
	.loc 1 599 0
	.cfi_startproc
.LVL314:
	stp	x29, x30, [sp, -32]!
	.cfi_def_cfa_offset 32
	.cfi_offset 29, -32
	.cfi_offset 30, -24
	add	x29, sp, 0
	.cfi_def_cfa_register 29
	stp	x19, x20, [sp,16]
	.cfi_offset 19, -16
	.cfi_offset 20, -8
	.loc 1 599 0
	mov	x20, x1
	.loc 1 600 0
	bl	hisi_blk_get_lld
.LVL315:
	mov	x19, x0
.LVL316:
	.loc 1 603 0
	ldr	w0, [x0,336]
	cmp	w0, 1
	beq	.L217
	.loc 1 603 0 is_stmt 0 discriminator 2
	adrp	x3, .LC34
	add	x3, x3, :lo12:.LC34
.L216:
	.loc 1 603 0 discriminator 4
	adrp	x2, .LC35
	mov	x1, 4096
	add	x2, x2, :lo12:.LC35
	mov	x0, x20
	bl	snprintf
.LVL317:
.LBB319:
.LBB320:
.LBB321:
	.loc 4 247 0 is_stmt 1 discriminator 4
	ldr	w3, [x19,256]
.LBE321:
.LBE320:
.LBE319:
	.loc 1 605 0
	mov	x1, 4096
	sxtw	x19, w0
.LVL318:
	adrp	x2, .LC36
	sub	x1, x1, x19
	add	x0, x20, x19
	add	x2, x2, :lo12:.LC36
	bl	snprintf
.LVL319:
	.loc 1 608 0
	add	x0, x19, x0, sxtw
	ldp	x19, x20, [sp,16]
	.cfi_remember_state
	.cfi_restore 20
	.cfi_restore 19
.LVL320:
	ldp	x29, x30, [sp], 32
	.cfi_restore 30
	.cfi_restore 29
	.cfi_def_cfa 31, 0
	ret
.LVL321:
.L217:
	.cfi_restore_state
	.loc 1 603 0 discriminator 1
	adrp	x3, .LC33
	add	x3, x3, :lo12:.LC33
	b	.L216
	.cfi_endproc
.LFE2981:
	.size	hisi_queue_idle_state_show, .-hisi_queue_idle_state_show
	.section	.rodata
	.align	3
.LANCHOR0 = . + 0
	.type	__func__.37300, %object
	.size	__func__.37300, 54
__func__.37300:
	.string	"hisi_blk_busy_idle_handler_latency_check_timer_expire"
	.zero	2
	.type	__func__.37312, %object
	.size	__func__.37312, 34
__func__.37312:
	.string	"hisi_blk_busy_idle_notify_handler"
	.zero	6
	.type	__func__.37327, %object
	.size	__func__.37327, 36
__func__.37327:
	.string	"hisi_blk_busy_idle_event_unregister"
	.zero	4
	.type	__func__.37322, %object
	.size	__func__.37322, 34
__func__.37322:
	.string	"hisi_blk_busy_idle_event_register"
	.zero	6
	.type	__func__.37363, %object
	.size	__func__.37363, 15
__func__.37363:
	.string	"blk_idle_count"
	.zero	1
	.type	__func__.37550, %object
	.size	__func__.37550, 34
__func__.37550:
	.string	"hisi_queue_busy_idle_enable_store"
	.zero	6
	.type	__func__.37559, %object
	.size	__func__.37559, 43
__func__.37559:
	.string	"hisi_queue_busy_idle_statistic_reset_store"
	.section	___ksymtab+blk_queue_busy_idle_enable,"a",%progbits
	.align	3
	.type	__ksymtab_blk_queue_busy_idle_enable, %object
	.size	__ksymtab_blk_queue_busy_idle_enable, 16
__ksymtab_blk_queue_busy_idle_enable:
	.xword	blk_queue_busy_idle_enable
	.xword	__kstrtab_blk_queue_busy_idle_enable
	.section	___ksymtab+hisi_blk_busy_idle_lld_trigger_idle_notify,"a",%progbits
	.align	3
	.type	__ksymtab_hisi_blk_busy_idle_lld_trigger_idle_notify, %object
	.size	__ksymtab_hisi_blk_busy_idle_lld_trigger_idle_notify, 16
__ksymtab_hisi_blk_busy_idle_lld_trigger_idle_notify:
	.xword	hisi_blk_busy_idle_lld_trigger_idle_notify
	.xword	__kstrtab_hisi_blk_busy_idle_lld_trigger_idle_notify
	.section	___kcrctab+blk_lld_busy_idle_event_subscriber,"a",%progbits
	.align	3
	.type	__kcrctab_blk_lld_busy_idle_event_subscriber, %object
	.size	__kcrctab_blk_lld_busy_idle_event_subscriber, 8
__kcrctab_blk_lld_busy_idle_event_subscriber:
	.xword	__crc_blk_lld_busy_idle_event_subscriber
	.section	___kcrctab+blk_busy_idle_event_subscriber,"a",%progbits
	.align	3
	.type	__kcrctab_blk_busy_idle_event_subscriber, %object
	.size	__kcrctab_blk_busy_idle_event_subscriber, 8
__kcrctab_blk_busy_idle_event_subscriber:
	.xword	__crc_blk_busy_idle_event_subscriber
	.section	___kcrctab+blk_lld_busy_idle_event_unsubscriber,"a",%progbits
	.align	3
	.type	__kcrctab_blk_lld_busy_idle_event_unsubscriber, %object
	.size	__kcrctab_blk_lld_busy_idle_event_unsubscriber, 8
__kcrctab_blk_lld_busy_idle_event_unsubscriber:
	.xword	__crc_blk_lld_busy_idle_event_unsubscriber
	.section	___ksymtab+blk_queue_hw_idle_notify_enable,"a",%progbits
	.align	3
	.type	__ksymtab_blk_queue_hw_idle_notify_enable, %object
	.size	__ksymtab_blk_queue_hw_idle_notify_enable, 16
__ksymtab_blk_queue_hw_idle_notify_enable:
	.xword	blk_queue_hw_idle_notify_enable
	.xword	__kstrtab_blk_queue_hw_idle_notify_enable
	.section	___ksymtab+blk_lld_busy_idle_event_subscriber,"a",%progbits
	.align	3
	.type	__ksymtab_blk_lld_busy_idle_event_subscriber, %object
	.size	__ksymtab_blk_lld_busy_idle_event_subscriber, 16
__ksymtab_blk_lld_busy_idle_event_subscriber:
	.xword	blk_lld_busy_idle_event_subscriber
	.xword	__kstrtab_blk_lld_busy_idle_event_subscriber
	.section	___kcrctab+blk_queue_busy_idle_event_subscriber,"a",%progbits
	.align	3
	.type	__kcrctab_blk_queue_busy_idle_event_subscriber, %object
	.size	__kcrctab_blk_queue_busy_idle_event_subscriber, 8
__kcrctab_blk_queue_busy_idle_event_subscriber:
	.xword	__crc_blk_queue_busy_idle_event_subscriber
	.section	___kcrctab+blk_queue_busy_idle_enable,"a",%progbits
	.align	3
	.type	__kcrctab_blk_queue_busy_idle_enable, %object
	.size	__kcrctab_blk_queue_busy_idle_enable, 8
__kcrctab_blk_queue_busy_idle_enable:
	.xword	__crc_blk_queue_busy_idle_enable
	.section	___ksymtab+blk_queue_busy_idle_event_unsubscriber,"a",%progbits
	.align	3
	.type	__ksymtab_blk_queue_busy_idle_event_unsubscriber, %object
	.size	__ksymtab_blk_queue_busy_idle_event_unsubscriber, 16
__ksymtab_blk_queue_busy_idle_event_unsubscriber:
	.xword	blk_queue_busy_idle_event_unsubscriber
	.xword	__kstrtab_blk_queue_busy_idle_event_unsubscriber
	.section	___ksymtab+blk_mq_tagset_busy_idle_enable,"a",%progbits
	.align	3
	.type	__ksymtab_blk_mq_tagset_busy_idle_enable, %object
	.size	__ksymtab_blk_mq_tagset_busy_idle_enable, 16
__ksymtab_blk_mq_tagset_busy_idle_enable:
	.xword	blk_mq_tagset_busy_idle_enable
	.xword	__kstrtab_blk_mq_tagset_busy_idle_enable
	.section	.rodata.str1.8,"aMS",%progbits,1
	.align	3
.LC0:
	.string	"\0013[BLK-IO]<%s> %s notify block process time is more than %d ms \r\n"
	.zero	6
.LC1:
	.string	"\0013[BLK-IO]<%s> %s notify block illegal!callback = %pK \r\n"
	.zero	7
.LC2:
	.string	"\0013[BLK-IO]<%s> %s blk_busy_idle_notifier_callback meets error! \r\n"
	.zero	6
.LC3:
	.string	"\0013[BLK-IO]<%s> %s blk_busy_idle_notifier_callback more than 10ms, actual %lld ms \r\n"
	.zero	4
.LC4:
	.string	"\0016[BLK-IO]%s registered to busy/idle module.\n"
	.zero	2
.LC5:
	.string	"\0010<%s> %s notify block illegal!current lld is %pK, notify registered lld is %pK \r\n"
	.zero	5
.LC6:
	.string	"\0016[BLK-IO]%s unregistered from busy/idle module.\n"
	.zero	6
.LC7:
	.string	"\0010<%s> %s notify block register illegal!callback = %pK \r\n"
	.zero	6
.LC8:
	.string	"\0010<%s> %s notify block has been register to %pK, current lld is %pK\r\n"
	.zero	2
.LC9:
	.string	"\0013[BLK-IO]<%s> io_count has been zero \r\n"
	.zero	7
.LC10:
	.string	"busy_idle_notify"
	.zero	7
.LC11:
	.string	"&blk_idle->io_count_mutex"
	.zero	6
.LC12:
	.string	"&(&blk_idle->blk_idle_event_subscribers)->rwsem"
.LC13:
	.string	"\0013[BLK-IO]%s: busy idle enable \r\n"
	.zero	6
.LC14:
	.string	"\0013[BLK-IO]%s: busy idle disable \r\n"
	.zero	5
.LC15:
	.string	"\0013[BLK-IO]%s: io busy idle statistic result reset! \r\n"
	.zero	2
.LC16:
	.string	"Total Busy Time: %lld(%s)  Total Idle Time: %lld(%s)  \r\n"
	.zero	7
.LC17:
	.string	"Total Idle Count: %llu \r\n"
	.zero	6
.LC18:
	.string	"block idle interval statistic:\n"
.LC19:
	.string	"max_idle_duration: %lldms\n"
	.zero	5
.LC20:
	.string	"less than 100ms: %lld\n"
	.zero	1
.LC21:
	.string	"less than 500ms: %lld\n"
	.zero	1
.LC22:
	.string	"less than 1s: %lld\n"
	.zero	4
.LC23:
	.string	"less than 2s: %lld\n"
	.zero	4
.LC24:
	.string	"less than 4s: %lld\n"
	.zero	4
.LC25:
	.string	"less than 6s: %lld\n"
	.zero	4
.LC26:
	.string	"less than 8s: %lld\n"
	.zero	4
.LC27:
	.string	"less than 10s: %lld\n"
	.zero	3
.LC28:
	.string	"more than 10s: %lld\n"
	.zero	3
.LC29:
	.string	"idle total counts: %llu\n"
	.zero	7
.LC30:
	.string	"enabled"
.LC31:
	.string	"disabled"
	.zero	7
.LC32:
	.string	"%s \n"
	.zero	3
.LC33:
	.string	"idle"
	.zero	3
.LC34:
	.string	"busy"
	.zero	3
.LC35:
	.string	"idle_state: %s\n"
.LC36:
	.string	"io_count: %d\n"
	.section	___kcrctab+blk_queue_hw_idle_notify_enable,"a",%progbits
	.align	3
	.type	__kcrctab_blk_queue_hw_idle_notify_enable, %object
	.size	__kcrctab_blk_queue_hw_idle_notify_enable, 8
__kcrctab_blk_queue_hw_idle_notify_enable:
	.xword	__crc_blk_queue_hw_idle_notify_enable
	.section	___kcrctab+blk_queue_busy_idle_event_unsubscriber,"a",%progbits
	.align	3
	.type	__kcrctab_blk_queue_busy_idle_event_unsubscriber, %object
	.size	__kcrctab_blk_queue_busy_idle_event_unsubscriber, 8
__kcrctab_blk_queue_busy_idle_event_unsubscriber:
	.xword	__crc_blk_queue_busy_idle_event_unsubscriber
	.section	___kcrctab+blk_mq_tagset_hw_idle_notify_enable,"a",%progbits
	.align	3
	.type	__kcrctab_blk_mq_tagset_hw_idle_notify_enable, %object
	.size	__kcrctab_blk_mq_tagset_hw_idle_notify_enable, 8
__kcrctab_blk_mq_tagset_hw_idle_notify_enable:
	.xword	__crc_blk_mq_tagset_hw_idle_notify_enable
	.bss
	.align	3
.LANCHOR1 = . + 0
	.type	blk_idle_notify_workqueue, %object
	.size	blk_idle_notify_workqueue, 8
blk_idle_notify_workqueue:
	.zero	8
	.type	__key.37421, %object
	.size	__key.37421, 0
__key.37421:
	.type	__key.37422, %object
	.size	__key.37422, 0
__key.37422:
	.section	___ksymtab+blk_busy_idle_event_unsubscriber,"a",%progbits
	.align	3
	.type	__ksymtab_blk_busy_idle_event_unsubscriber, %object
	.size	__ksymtab_blk_busy_idle_event_unsubscriber, 16
__ksymtab_blk_busy_idle_event_unsubscriber:
	.xword	blk_busy_idle_event_unsubscriber
	.xword	__kstrtab_blk_busy_idle_event_unsubscriber
	.section	___ksymtab+blk_busy_idle_event_subscriber,"a",%progbits
	.align	3
	.type	__ksymtab_blk_busy_idle_event_subscriber, %object
	.size	__ksymtab_blk_busy_idle_event_subscriber, 16
__ksymtab_blk_busy_idle_event_subscriber:
	.xword	blk_busy_idle_event_subscriber
	.xword	__kstrtab_blk_busy_idle_event_subscriber
	.section	__ksymtab_strings,"a",%progbits
	.type	__kstrtab_blk_mq_tagset_hw_idle_notify_enable, %object
	.size	__kstrtab_blk_mq_tagset_hw_idle_notify_enable, 36
__kstrtab_blk_mq_tagset_hw_idle_notify_enable:
	.string	"blk_mq_tagset_hw_idle_notify_enable"
	.type	__kstrtab_blk_queue_hw_idle_notify_enable, %object
	.size	__kstrtab_blk_queue_hw_idle_notify_enable, 32
__kstrtab_blk_queue_hw_idle_notify_enable:
	.string	"blk_queue_hw_idle_notify_enable"
	.type	__kstrtab_blk_mq_tagset_busy_idle_enable, %object
	.size	__kstrtab_blk_mq_tagset_busy_idle_enable, 31
__kstrtab_blk_mq_tagset_busy_idle_enable:
	.string	"blk_mq_tagset_busy_idle_enable"
	.type	__kstrtab_blk_queue_busy_idle_enable, %object
	.size	__kstrtab_blk_queue_busy_idle_enable, 27
__kstrtab_blk_queue_busy_idle_enable:
	.string	"blk_queue_busy_idle_enable"
	.type	__kstrtab_blk_lld_busy_idle_event_unsubscriber, %object
	.size	__kstrtab_blk_lld_busy_idle_event_unsubscriber, 37
__kstrtab_blk_lld_busy_idle_event_unsubscriber:
	.string	"blk_lld_busy_idle_event_unsubscriber"
	.type	__kstrtab_blk_queue_busy_idle_event_unsubscriber, %object
	.size	__kstrtab_blk_queue_busy_idle_event_unsubscriber, 39
__kstrtab_blk_queue_busy_idle_event_unsubscriber:
	.string	"blk_queue_busy_idle_event_unsubscriber"
	.type	__kstrtab_blk_busy_idle_event_unsubscriber, %object
	.size	__kstrtab_blk_busy_idle_event_unsubscriber, 33
__kstrtab_blk_busy_idle_event_unsubscriber:
	.string	"blk_busy_idle_event_unsubscriber"
	.type	__kstrtab_blk_lld_busy_idle_event_subscriber, %object
	.size	__kstrtab_blk_lld_busy_idle_event_subscriber, 35
__kstrtab_blk_lld_busy_idle_event_subscriber:
	.string	"blk_lld_busy_idle_event_subscriber"
	.type	__kstrtab_blk_queue_busy_idle_event_subscriber, %object
	.size	__kstrtab_blk_queue_busy_idle_event_subscriber, 37
__kstrtab_blk_queue_busy_idle_event_subscriber:
	.string	"blk_queue_busy_idle_event_subscriber"
	.type	__kstrtab_blk_busy_idle_event_subscriber, %object
	.size	__kstrtab_blk_busy_idle_event_subscriber, 31
__kstrtab_blk_busy_idle_event_subscriber:
	.string	"blk_busy_idle_event_subscriber"
	.type	__kstrtab_hisi_blk_busy_idle_lld_trigger_idle_notify, %object
	.size	__kstrtab_hisi_blk_busy_idle_lld_trigger_idle_notify, 43
__kstrtab_hisi_blk_busy_idle_lld_trigger_idle_notify:
	.string	"hisi_blk_busy_idle_lld_trigger_idle_notify"
	.section	___kcrctab+blk_busy_idle_event_unsubscriber,"a",%progbits
	.align	3
	.type	__kcrctab_blk_busy_idle_event_unsubscriber, %object
	.size	__kcrctab_blk_busy_idle_event_unsubscriber, 8
__kcrctab_blk_busy_idle_event_unsubscriber:
	.xword	__crc_blk_busy_idle_event_unsubscriber
	.section	___kcrctab+hisi_blk_busy_idle_lld_trigger_idle_notify,"a",%progbits
	.align	3
	.type	__kcrctab_hisi_blk_busy_idle_lld_trigger_idle_notify, %object
	.size	__kcrctab_hisi_blk_busy_idle_lld_trigger_idle_notify, 8
__kcrctab_hisi_blk_busy_idle_lld_trigger_idle_notify:
	.xword	__crc_hisi_blk_busy_idle_lld_trigger_idle_notify
	.section	___ksymtab+blk_queue_busy_idle_event_subscriber,"a",%progbits
	.align	3
	.type	__ksymtab_blk_queue_busy_idle_event_subscriber, %object
	.size	__ksymtab_blk_queue_busy_idle_event_subscriber, 16
__ksymtab_blk_queue_busy_idle_event_subscriber:
	.xword	blk_queue_busy_idle_event_subscriber
	.xword	__kstrtab_blk_queue_busy_idle_event_subscriber
	.section	___ksymtab+blk_mq_tagset_hw_idle_notify_enable,"a",%progbits
	.align	3
	.type	__ksymtab_blk_mq_tagset_hw_idle_notify_enable, %object
	.size	__ksymtab_blk_mq_tagset_hw_idle_notify_enable, 16
__ksymtab_blk_mq_tagset_hw_idle_notify_enable:
	.xword	blk_mq_tagset_hw_idle_notify_enable
	.xword	__kstrtab_blk_mq_tagset_hw_idle_notify_enable
	.section	___kcrctab+blk_mq_tagset_busy_idle_enable,"a",%progbits
	.align	3
	.type	__kcrctab_blk_mq_tagset_busy_idle_enable, %object
	.size	__kcrctab_blk_mq_tagset_busy_idle_enable, 8
__kcrctab_blk_mq_tagset_busy_idle_enable:
	.xword	__crc_blk_mq_tagset_busy_idle_enable
	.section	___ksymtab+blk_lld_busy_idle_event_unsubscriber,"a",%progbits
	.align	3
	.type	__ksymtab_blk_lld_busy_idle_event_unsubscriber, %object
	.size	__ksymtab_blk_lld_busy_idle_event_unsubscriber, 16
__ksymtab_blk_lld_busy_idle_event_unsubscriber:
	.xword	blk_lld_busy_idle_event_unsubscriber
	.xword	__kstrtab_blk_lld_busy_idle_event_unsubscriber
	.weak	__crc_blk_mq_tagset_busy_idle_enable
	.weak	__crc_hisi_blk_busy_idle_lld_trigger_idle_notify
	.weak	__crc_blk_busy_idle_event_unsubscriber
	.weak	__crc_blk_mq_tagset_hw_idle_notify_enable
	.weak	__crc_blk_queue_busy_idle_event_unsubscriber
	.weak	__crc_blk_queue_hw_idle_notify_enable
	.weak	__crc_blk_queue_busy_idle_enable
	.weak	__crc_blk_queue_busy_idle_event_subscriber
	.weak	__crc_blk_lld_busy_idle_event_unsubscriber
	.weak	__crc_blk_busy_idle_event_subscriber
	.weak	__crc_blk_lld_busy_idle_event_subscriber
	.text
.Letext0:
	.file 9 "/mnt/disk/jenkins/ci/workspace/chipset_9.1.0_boston/opensource/component_code/vendor/huawei/extra/build/build_script/kirin_kernel_release/kernel/include/uapi/asm-generic/int-ll64.h"
	.file 10 "/mnt/disk/jenkins/ci/workspace/chipset_9.1.0_boston/opensource/component_code/vendor/huawei/extra/build/build_script/kirin_kernel_release/kernel/include/asm-generic/int-ll64.h"
	.file 11 "/mnt/disk/jenkins/ci/workspace/chipset_9.1.0_boston/opensource/component_code/vendor/huawei/extra/build/build_script/kirin_kernel_release/kernel/include/uapi/asm-generic/posix_types.h"
	.file 12 "/mnt/disk/jenkins/ci/workspace/chipset_9.1.0_boston/opensource/component_code/vendor/huawei/extra/build/build_script/kirin_kernel_release/kernel/include/linux/export.h"
	.file 13 "/mnt/disk/jenkins/ci/workspace/chipset_9.1.0_boston/opensource/component_code/vendor/huawei/extra/build/build_script/kirin_kernel_release/kernel/include/linux/types.h"
	.file 14 "/mnt/disk/jenkins/ci/workspace/chipset_9.1.0_boston/opensource/component_code/vendor/huawei/extra/build/build_script/kirin_kernel_release/kernel/include/linux/capability.h"
	.file 15 "/mnt/disk/jenkins/ci/workspace/chipset_9.1.0_boston/opensource/component_code/vendor/huawei/extra/build/build_script/kirin_kernel_release/kernel/include/asm-generic/bug.h"
	.file 16 "/mnt/disk/jenkins/ci/workspace/chipset_9.1.0_boston/opensource/component_code/vendor/huawei/extra/build/build_script/kirin_kernel_release/kernel/include/linux/restart_block.h"
	.file 17 "/mnt/disk/jenkins/ci/workspace/chipset_9.1.0_boston/opensource/component_code/vendor/huawei/extra/build/build_script/kirin_kernel_release/kernel/include/uapi/linux/time.h"
	.file 18 "/mnt/disk/jenkins/ci/workspace/chipset_9.1.0_boston/opensource/component_code/vendor/huawei/extra/build/build_script/kirin_kernel_release/kernel/arch/arm64/include/asm/compat.h"
	.file 19 "/mnt/disk/jenkins/ci/workspace/chipset_9.1.0_boston/opensource/component_code/vendor/huawei/extra/build/build_script/kirin_kernel_release/kernel/include/uapi/asm-generic/poll.h"
	.file 20 "/mnt/disk/jenkins/ci/workspace/chipset_9.1.0_boston/opensource/component_code/vendor/huawei/extra/build/build_script/kirin_kernel_release/kernel/arch/arm64/include/asm/thread_info.h"
	.file 21 "/mnt/disk/jenkins/ci/workspace/chipset_9.1.0_boston/opensource/component_code/vendor/huawei/extra/build/build_script/kirin_kernel_release/kernel/arch/arm64/include/uapi/asm/ptrace.h"
	.file 22 "/mnt/disk/jenkins/ci/workspace/chipset_9.1.0_boston/opensource/component_code/vendor/huawei/extra/build/build_script/kirin_kernel_release/kernel/arch/arm64/include/asm/spinlock_types.h"
	.file 23 "/mnt/disk/jenkins/ci/workspace/chipset_9.1.0_boston/opensource/component_code/vendor/huawei/extra/build/build_script/kirin_kernel_release/kernel/include/linux/spinlock_types.h"
	.file 24 "/mnt/disk/jenkins/ci/workspace/chipset_9.1.0_boston/opensource/component_code/vendor/huawei/extra/build/build_script/kirin_kernel_release/kernel/include/linux/rwlock_types.h"
	.file 25 "/mnt/disk/jenkins/ci/workspace/chipset_9.1.0_boston/opensource/component_code/vendor/huawei/extra/build/build_script/kirin_kernel_release/kernel/arch/arm64/include/asm/fpsimd.h"
	.file 26 "/mnt/disk/jenkins/ci/workspace/chipset_9.1.0_boston/opensource/component_code/vendor/huawei/extra/build/build_script/kirin_kernel_release/kernel/include/linux/jump_label.h"
	.file 27 "/mnt/disk/jenkins/ci/workspace/chipset_9.1.0_boston/opensource/component_code/vendor/huawei/extra/build/build_script/kirin_kernel_release/kernel/include/asm-generic/atomic-long.h"
	.file 28 "/mnt/disk/jenkins/ci/workspace/chipset_9.1.0_boston/opensource/component_code/vendor/huawei/extra/build/build_script/kirin_kernel_release/kernel/arch/arm64/include/asm/processor.h"
	.file 29 "/mnt/disk/jenkins/ci/workspace/chipset_9.1.0_boston/opensource/component_code/vendor/huawei/extra/build/build_script/kirin_kernel_release/kernel/include/linux/seqlock.h"
	.file 30 "/mnt/disk/jenkins/ci/workspace/chipset_9.1.0_boston/opensource/component_code/vendor/huawei/extra/build/build_script/kirin_kernel_release/kernel/include/linux/time64.h"
	.file 31 "/mnt/disk/jenkins/ci/workspace/chipset_9.1.0_boston/opensource/component_code/vendor/huawei/extra/build/build_script/kirin_kernel_release/kernel/include/linux/plist.h"
	.file 32 "/mnt/disk/jenkins/ci/workspace/chipset_9.1.0_boston/opensource/component_code/vendor/huawei/extra/build/build_script/kirin_kernel_release/kernel/include/linux/cpumask.h"
	.file 33 "/mnt/disk/jenkins/ci/workspace/chipset_9.1.0_boston/opensource/component_code/vendor/huawei/extra/build/build_script/kirin_kernel_release/kernel/include/linux/wait.h"
	.file 34 "/mnt/disk/jenkins/ci/workspace/chipset_9.1.0_boston/opensource/component_code/vendor/huawei/extra/build/build_script/kirin_kernel_release/kernel/include/linux/completion.h"
	.file 35 "/mnt/disk/jenkins/ci/workspace/chipset_9.1.0_boston/opensource/component_code/vendor/huawei/extra/build/build_script/kirin_kernel_release/kernel/include/linux/rbtree.h"
	.file 36 "/mnt/disk/jenkins/ci/workspace/chipset_9.1.0_boston/opensource/component_code/vendor/huawei/extra/build/build_script/kirin_kernel_release/kernel/include/linux/nodemask.h"
	.file 37 "/mnt/disk/jenkins/ci/workspace/chipset_9.1.0_boston/opensource/component_code/vendor/huawei/extra/build/build_script/kirin_kernel_release/kernel/include/linux/osq_lock.h"
	.file 38 "/mnt/disk/jenkins/ci/workspace/chipset_9.1.0_boston/opensource/component_code/vendor/huawei/extra/build/build_script/kirin_kernel_release/kernel/include/linux/rwsem.h"
	.file 39 "/mnt/disk/jenkins/ci/workspace/chipset_9.1.0_boston/opensource/component_code/vendor/huawei/extra/build/build_script/kirin_kernel_release/kernel/include/linux/sched.h"
	.file 40 "/mnt/disk/jenkins/ci/workspace/chipset_9.1.0_boston/opensource/component_code/vendor/huawei/extra/build/build_script/kirin_kernel_release/kernel/include/linux/mm_types.h"
	.file 41 "/mnt/disk/jenkins/ci/workspace/chipset_9.1.0_boston/opensource/component_code/vendor/huawei/extra/build/build_script/kirin_kernel_release/kernel/include/linux/lockdep.h"
	.file 42 "/mnt/disk/jenkins/ci/workspace/chipset_9.1.0_boston/opensource/component_code/vendor/huawei/extra/build/build_script/kirin_kernel_release/kernel/include/linux/uprobes.h"
	.file 43 "/mnt/disk/jenkins/ci/workspace/chipset_9.1.0_boston/opensource/component_code/vendor/huawei/extra/build/build_script/kirin_kernel_release/kernel/include/linux/timer.h"
	.file 44 "/mnt/disk/jenkins/ci/workspace/chipset_9.1.0_boston/opensource/component_code/vendor/huawei/extra/build/build_script/kirin_kernel_release/kernel/include/linux/uidgid.h"
	.file 45 "/mnt/disk/jenkins/ci/workspace/chipset_9.1.0_boston/opensource/component_code/vendor/huawei/extra/build/build_script/kirin_kernel_release/kernel/include/linux/stddef.h"
	.file 46 "/mnt/disk/jenkins/ci/workspace/chipset_9.1.0_boston/opensource/component_code/vendor/huawei/extra/build/build_script/kirin_kernel_release/kernel/arch/arm64/include/asm/pgtable-types.h"
	.file 47 "/mnt/disk/jenkins/ci/workspace/chipset_9.1.0_boston/opensource/component_code/vendor/huawei/extra/build/build_script/kirin_kernel_release/kernel/arch/arm64/include/asm/page.h"
	.file 48 "/mnt/disk/jenkins/ci/workspace/chipset_9.1.0_boston/opensource/component_code/vendor/huawei/extra/build/build_script/kirin_kernel_release/kernel/include/linux/pfn.h"
	.file 49 "/mnt/disk/jenkins/ci/workspace/chipset_9.1.0_boston/opensource/component_code/vendor/huawei/extra/build/build_script/kirin_kernel_release/kernel/include/linux/llist.h"
	.file 50 "/mnt/disk/jenkins/ci/workspace/chipset_9.1.0_boston/opensource/component_code/vendor/huawei/extra/build/build_script/kirin_kernel_release/kernel/include/linux/smp.h"
	.file 51 "/mnt/disk/jenkins/ci/workspace/chipset_9.1.0_boston/opensource/component_code/vendor/huawei/extra/build/build_script/kirin_kernel_release/kernel/arch/arm64/include/asm/smp.h"
	.file 52 "/mnt/disk/jenkins/ci/workspace/chipset_9.1.0_boston/opensource/component_code/vendor/huawei/extra/build/build_script/kirin_kernel_release/kernel/arch/arm64/include/asm/mmu.h"
	.file 53 "/mnt/disk/jenkins/ci/workspace/chipset_9.1.0_boston/opensource/component_code/vendor/huawei/extra/build/build_script/kirin_kernel_release/kernel/include/linux/fs.h"
	.file 54 "/mnt/disk/jenkins/ci/workspace/chipset_9.1.0_boston/opensource/component_code/vendor/huawei/extra/build/build_script/kirin_kernel_release/kernel/include/linux/mm.h"
	.file 55 "/mnt/disk/jenkins/ci/workspace/chipset_9.1.0_boston/opensource/component_code/vendor/huawei/extra/build/build_script/kirin_kernel_release/kernel/include/asm-generic/cputime_jiffies.h"
	.file 56 "/mnt/disk/jenkins/ci/workspace/chipset_9.1.0_boston/opensource/component_code/vendor/huawei/extra/build/build_script/kirin_kernel_release/kernel/include/uapi/asm-generic/signal.h"
	.file 57 "/mnt/disk/jenkins/ci/workspace/chipset_9.1.0_boston/opensource/component_code/vendor/huawei/extra/build/build_script/kirin_kernel_release/kernel/include/uapi/asm-generic/signal-defs.h"
	.file 58 "/mnt/disk/jenkins/ci/workspace/chipset_9.1.0_boston/opensource/component_code/vendor/huawei/extra/build/build_script/kirin_kernel_release/kernel/include/uapi/asm-generic/siginfo.h"
	.file 59 "/mnt/disk/jenkins/ci/workspace/chipset_9.1.0_boston/opensource/component_code/vendor/huawei/extra/build/build_script/kirin_kernel_release/kernel/include/linux/signal.h"
	.file 60 "/mnt/disk/jenkins/ci/workspace/chipset_9.1.0_boston/opensource/component_code/vendor/huawei/extra/build/build_script/kirin_kernel_release/kernel/include/linux/pid.h"
	.file 61 "/mnt/disk/jenkins/ci/workspace/chipset_9.1.0_boston/opensource/component_code/vendor/huawei/extra/build/build_script/kirin_kernel_release/kernel/include/linux/mmzone.h"
	.file 62 "/mnt/disk/jenkins/ci/workspace/chipset_9.1.0_boston/opensource/component_code/vendor/huawei/extra/build/build_script/kirin_kernel_release/kernel/include/linux/page_ext.h"
	.file 63 "/mnt/disk/jenkins/ci/workspace/chipset_9.1.0_boston/opensource/component_code/vendor/huawei/extra/build/build_script/kirin_kernel_release/kernel/include/linux/mutex.h"
	.file 64 "/mnt/disk/jenkins/ci/workspace/chipset_9.1.0_boston/opensource/component_code/vendor/huawei/extra/build/build_script/kirin_kernel_release/kernel/include/linux/notifier.h"
	.file 65 "/mnt/disk/jenkins/ci/workspace/chipset_9.1.0_boston/opensource/component_code/vendor/huawei/extra/build/build_script/kirin_kernel_release/kernel/include/linux/seccomp.h"
	.file 66 "/mnt/disk/jenkins/ci/workspace/chipset_9.1.0_boston/opensource/component_code/vendor/huawei/extra/build/build_script/kirin_kernel_release/kernel/include/uapi/linux/resource.h"
	.file 67 "/mnt/disk/jenkins/ci/workspace/chipset_9.1.0_boston/opensource/component_code/vendor/huawei/extra/build/build_script/kirin_kernel_release/kernel/include/linux/timerqueue.h"
	.file 68 "/mnt/disk/jenkins/ci/workspace/chipset_9.1.0_boston/opensource/component_code/vendor/huawei/extra/build/build_script/kirin_kernel_release/kernel/include/linux/hrtimer.h"
	.file 69 "/mnt/disk/jenkins/ci/workspace/chipset_9.1.0_boston/opensource/component_code/vendor/huawei/extra/build/build_script/kirin_kernel_release/kernel/include/linux/task_io_accounting.h"
	.file 70 "/mnt/disk/jenkins/ci/workspace/chipset_9.1.0_boston/opensource/component_code/vendor/huawei/extra/build/build_script/kirin_kernel_release/kernel/include/linux/assoc_array.h"
	.file 71 "/mnt/disk/jenkins/ci/workspace/chipset_9.1.0_boston/opensource/component_code/vendor/huawei/extra/build/build_script/kirin_kernel_release/kernel/include/linux/key.h"
	.file 72 "/mnt/disk/jenkins/ci/workspace/chipset_9.1.0_boston/opensource/component_code/vendor/huawei/extra/build/build_script/kirin_kernel_release/kernel/include/linux/cred.h"
	.file 73 "/mnt/disk/jenkins/ci/workspace/chipset_9.1.0_boston/opensource/component_code/vendor/huawei/extra/build/build_script/kirin_kernel_release/kernel/include/linux/idr.h"
	.file 74 "/mnt/disk/jenkins/ci/workspace/chipset_9.1.0_boston/opensource/component_code/vendor/huawei/extra/build/build_script/kirin_kernel_release/kernel/include/linux/percpu-refcount.h"
	.file 75 "/mnt/disk/jenkins/ci/workspace/chipset_9.1.0_boston/opensource/component_code/vendor/huawei/extra/build/build_script/kirin_kernel_release/kernel/include/linux/rcu_sync.h"
	.file 76 "/mnt/disk/jenkins/ci/workspace/chipset_9.1.0_boston/opensource/component_code/vendor/huawei/extra/build/build_script/kirin_kernel_release/kernel/include/linux/percpu-rwsem.h"
	.file 77 "/mnt/disk/jenkins/ci/workspace/chipset_9.1.0_boston/opensource/component_code/vendor/huawei/extra/build/build_script/kirin_kernel_release/kernel/include/linux/bpf-cgroup.h"
	.file 78 "/mnt/disk/jenkins/ci/workspace/chipset_9.1.0_boston/opensource/component_code/vendor/huawei/extra/build/build_script/kirin_kernel_release/kernel/include/linux/cgroup-defs.h"
	.file 79 "/mnt/disk/jenkins/ci/workspace/chipset_9.1.0_boston/opensource/component_code/vendor/huawei/extra/build/build_script/kirin_kernel_release/kernel/include/linux/kernfs.h"
	.file 80 "/mnt/disk/jenkins/ci/workspace/chipset_9.1.0_boston/opensource/component_code/vendor/huawei/extra/build/build_script/kirin_kernel_release/kernel/include/linux/seq_file.h"
	.file 81 "/mnt/disk/jenkins/ci/workspace/chipset_9.1.0_boston/opensource/component_code/vendor/huawei/extra/build/build_script/kirin_kernel_release/kernel/include/linux/bio.h"
	.file 82 "/mnt/disk/jenkins/ci/workspace/chipset_9.1.0_boston/opensource/component_code/vendor/huawei/extra/build/build_script/kirin_kernel_release/kernel/include/linux/backing-dev-defs.h"
	.file 83 "/mnt/disk/jenkins/ci/workspace/chipset_9.1.0_boston/opensource/component_code/vendor/huawei/extra/build/build_script/kirin_kernel_release/kernel/include/linux/iocontext.h"
	.file 84 "/mnt/disk/jenkins/ci/workspace/chipset_9.1.0_boston/opensource/component_code/vendor/huawei/extra/build/build_script/kirin_kernel_release/kernel/include/linux/compat.h"
	.file 85 "/mnt/disk/jenkins/ci/workspace/chipset_9.1.0_boston/opensource/component_code/vendor/huawei/extra/build/build_script/kirin_kernel_release/kernel/include/linux/stat.h"
	.file 86 "/mnt/disk/jenkins/ci/workspace/chipset_9.1.0_boston/opensource/component_code/vendor/huawei/extra/build/build_script/kirin_kernel_release/kernel/include/uapi/linux/elf.h"
	.file 87 "/mnt/disk/jenkins/ci/workspace/chipset_9.1.0_boston/opensource/component_code/vendor/huawei/extra/build/build_script/kirin_kernel_release/kernel/include/linux/kobject_ns.h"
	.file 88 "/mnt/disk/jenkins/ci/workspace/chipset_9.1.0_boston/opensource/component_code/vendor/huawei/extra/build/build_script/kirin_kernel_release/kernel/include/linux/sysfs.h"
	.file 89 "/mnt/disk/jenkins/ci/workspace/chipset_9.1.0_boston/opensource/component_code/vendor/huawei/extra/build/build_script/kirin_kernel_release/kernel/include/linux/kobject.h"
	.file 90 "/mnt/disk/jenkins/ci/workspace/chipset_9.1.0_boston/opensource/component_code/vendor/huawei/extra/build/build_script/kirin_kernel_release/kernel/include/linux/kref.h"
	.file 91 "/mnt/disk/jenkins/ci/workspace/chipset_9.1.0_boston/opensource/component_code/vendor/huawei/extra/build/build_script/kirin_kernel_release/kernel/include/linux/moduleparam.h"
	.file 92 "/mnt/disk/jenkins/ci/workspace/chipset_9.1.0_boston/opensource/component_code/vendor/huawei/extra/build/build_script/kirin_kernel_release/kernel/include/linux/module.h"
	.file 93 "/mnt/disk/jenkins/ci/workspace/chipset_9.1.0_boston/opensource/component_code/vendor/huawei/extra/build/build_script/kirin_kernel_release/kernel/include/linux/rbtree_latch.h"
	.file 94 "/mnt/disk/jenkins/ci/workspace/chipset_9.1.0_boston/opensource/component_code/vendor/huawei/extra/build/build_script/kirin_kernel_release/kernel/arch/arm64/include/asm/module.h"
	.file 95 "/mnt/disk/jenkins/ci/workspace/chipset_9.1.0_boston/opensource/component_code/vendor/huawei/extra/build/build_script/kirin_kernel_release/kernel/arch/arm64/include/asm/uaccess.h"
	.file 96 "/mnt/disk/jenkins/ci/workspace/chipset_9.1.0_boston/opensource/component_code/vendor/huawei/extra/build/build_script/kirin_kernel_release/kernel/include/linux/tracepoint-defs.h"
	.file 97 "/mnt/disk/jenkins/ci/workspace/chipset_9.1.0_boston/opensource/component_code/vendor/huawei/extra/build/build_script/kirin_kernel_release/kernel/include/linux/tracepoint.h"
	.file 98 "/mnt/disk/jenkins/ci/workspace/chipset_9.1.0_boston/opensource/component_code/vendor/huawei/extra/build/build_script/kirin_kernel_release/kernel/include/linux/list_bl.h"
	.file 99 "/mnt/disk/jenkins/ci/workspace/chipset_9.1.0_boston/opensource/component_code/vendor/huawei/extra/build/build_script/kirin_kernel_release/kernel/include/linux/lockref.h"
	.file 100 "/mnt/disk/jenkins/ci/workspace/chipset_9.1.0_boston/opensource/component_code/vendor/huawei/extra/build/build_script/kirin_kernel_release/kernel/include/linux/dcache.h"
	.file 101 "/mnt/disk/jenkins/ci/workspace/chipset_9.1.0_boston/opensource/component_code/vendor/huawei/extra/build/build_script/kirin_kernel_release/kernel/include/linux/path.h"
	.file 102 "/mnt/disk/jenkins/ci/workspace/chipset_9.1.0_boston/opensource/component_code/vendor/huawei/extra/build/build_script/kirin_kernel_release/kernel/include/linux/shrinker.h"
	.file 103 "/mnt/disk/jenkins/ci/workspace/chipset_9.1.0_boston/opensource/component_code/vendor/huawei/extra/build/build_script/kirin_kernel_release/kernel/include/linux/list_lru.h"
	.file 104 "/mnt/disk/jenkins/ci/workspace/chipset_9.1.0_boston/opensource/component_code/vendor/huawei/extra/build/build_script/kirin_kernel_release/kernel/include/linux/radix-tree.h"
	.file 105 "/mnt/disk/jenkins/ci/workspace/chipset_9.1.0_boston/opensource/component_code/vendor/huawei/extra/build/build_script/kirin_kernel_release/kernel/include/uapi/linux/fiemap.h"
	.file 106 "/mnt/disk/jenkins/ci/workspace/chipset_9.1.0_boston/opensource/component_code/vendor/huawei/extra/build/build_script/kirin_kernel_release/kernel/include/linux/migrate_mode.h"
	.file 107 "/mnt/disk/jenkins/ci/workspace/chipset_9.1.0_boston/opensource/component_code/vendor/huawei/extra/build/build_script/kirin_kernel_release/kernel/include/linux/bvec.h"
	.file 108 "/mnt/disk/jenkins/ci/workspace/chipset_9.1.0_boston/opensource/component_code/vendor/huawei/extra/build/build_script/kirin_kernel_release/kernel/include/linux/blk_types.h"
	.file 109 "/mnt/disk/jenkins/ci/workspace/chipset_9.1.0_boston/opensource/component_code/vendor/huawei/extra/build/build_script/kirin_kernel_release/kernel/include/linux/delayed_call.h"
	.file 110 "/mnt/disk/jenkins/ci/workspace/chipset_9.1.0_boston/opensource/component_code/vendor/huawei/extra/build/build_script/kirin_kernel_release/kernel/include/linux/percpu_counter.h"
	.file 111 "/mnt/disk/jenkins/ci/workspace/chipset_9.1.0_boston/opensource/component_code/vendor/huawei/extra/build/build_script/kirin_kernel_release/kernel/include/linux/quota.h"
	.file 112 "/mnt/disk/jenkins/ci/workspace/chipset_9.1.0_boston/opensource/component_code/vendor/huawei/extra/build/build_script/kirin_kernel_release/kernel/include/linux/projid.h"
	.file 113 "/mnt/disk/jenkins/ci/workspace/chipset_9.1.0_boston/opensource/component_code/vendor/huawei/extra/build/build_script/kirin_kernel_release/kernel/include/linux/uio.h"
	.file 114 "/mnt/disk/jenkins/ci/workspace/chipset_9.1.0_boston/opensource/component_code/vendor/huawei/extra/build/build_script/kirin_kernel_release/kernel/include/linux/genhd.h"
	.file 115 "/mnt/disk/jenkins/ci/workspace/chipset_9.1.0_boston/opensource/component_code/vendor/huawei/extra/build/build_script/kirin_kernel_release/kernel/include/linux/nfs_fs_i.h"
	.file 116 "/mnt/disk/jenkins/ci/workspace/chipset_9.1.0_boston/opensource/component_code/vendor/huawei/extra/build/build_script/kirin_kernel_release/kernel/include/linux/poll.h"
	.file 117 "/mnt/disk/jenkins/ci/workspace/chipset_9.1.0_boston/opensource/component_code/vendor/huawei/extra/build/build_script/kirin_kernel_release/kernel/include/linux/vmstat.h"
	.file 118 "/mnt/disk/jenkins/ci/workspace/chipset_9.1.0_boston/opensource/component_code/vendor/huawei/extra/build/build_script/kirin_kernel_release/kernel/include/linux/mempool.h"
	.file 119 "/mnt/disk/jenkins/ci/workspace/chipset_9.1.0_boston/opensource/component_code/vendor/huawei/extra/build/build_script/kirin_kernel_release/kernel/include/linux/klist.h"
	.file 120 "/mnt/disk/jenkins/ci/workspace/chipset_9.1.0_boston/opensource/component_code/vendor/huawei/extra/build/build_script/kirin_kernel_release/kernel/include/linux/pinctrl/devinfo.h"
	.file 121 "/mnt/disk/jenkins/ci/workspace/chipset_9.1.0_boston/opensource/component_code/vendor/huawei/extra/build/build_script/kirin_kernel_release/kernel/include/linux/pm.h"
	.file 122 "/mnt/disk/jenkins/ci/workspace/chipset_9.1.0_boston/opensource/component_code/vendor/huawei/extra/build/build_script/kirin_kernel_release/kernel/include/linux/device.h"
	.file 123 "/mnt/disk/jenkins/ci/workspace/chipset_9.1.0_boston/opensource/component_code/vendor/huawei/extra/build/build_script/kirin_kernel_release/kernel/include/linux/pm_wakeup.h"
	.file 124 "/mnt/disk/jenkins/ci/workspace/chipset_9.1.0_boston/opensource/component_code/vendor/huawei/extra/build/build_script/kirin_kernel_release/kernel/arch/arm64/include/asm/device.h"
	.file 125 "/mnt/disk/jenkins/ci/workspace/chipset_9.1.0_boston/opensource/component_code/vendor/huawei/extra/build/build_script/kirin_kernel_release/kernel/include/linux/flex_proportions.h"
	.file 126 "/mnt/disk/jenkins/ci/workspace/chipset_9.1.0_boston/opensource/component_code/vendor/huawei/extra/build/build_script/kirin_kernel_release/kernel/include/linux/bsg.h"
	.file 127 "/mnt/disk/jenkins/ci/workspace/chipset_9.1.0_boston/opensource/component_code/vendor/huawei/extra/build/build_script/kirin_kernel_release/kernel/include/linux/wbt.h"
	.file 128 "/mnt/disk/jenkins/ci/workspace/chipset_9.1.0_boston/opensource/component_code/vendor/huawei/extra/build/build_script/kirin_kernel_release/kernel/block/blk-mq.h"
	.file 129 "/mnt/disk/jenkins/ci/workspace/chipset_9.1.0_boston/opensource/component_code/vendor/huawei/extra/build/build_script/kirin_kernel_release/kernel/include/linux/elevator.h"
	.file 130 "/mnt/disk/jenkins/ci/workspace/chipset_9.1.0_boston/opensource/component_code/vendor/huawei/extra/build/build_script/kirin_kernel_release/kernel/include/linux/blk-mq.h"
	.file 131 "/mnt/disk/jenkins/ci/workspace/chipset_9.1.0_boston/opensource/component_code/vendor/huawei/extra/build/build_script/kirin_kernel_release/kernel/block/hisi-blk.h"
	.file 132 "/mnt/disk/jenkins/ci/workspace/chipset_9.1.0_boston/opensource/component_code/vendor/huawei/extra/build/build_script/kirin_kernel_release/kernel/block/blk.h"
	.file 133 "/mnt/disk/jenkins/ci/workspace/chipset_9.1.0_boston/opensource/component_code/vendor/huawei/extra/build/build_script/kirin_kernel_release/kernel/include/uapi/linux/uio.h"
	.file 134 "/mnt/disk/jenkins/ci/workspace/chipset_9.1.0_boston/opensource/component_code/vendor/huawei/extra/build/build_script/kirin_kernel_release/kernel/include/linux/sbitmap.h"
	.file 135 "/mnt/disk/jenkins/ci/workspace/chipset_9.1.0_boston/opensource/component_code/vendor/huawei/extra/build/build_script/kirin_kernel_release/kernel/arch/arm64/include/asm/cachetype.h"
	.file 136 "/mnt/disk/jenkins/ci/workspace/chipset_9.1.0_boston/opensource/component_code/vendor/huawei/extra/build/build_script/kirin_kernel_release/kernel/include/linux/printk.h"
	.file 137 "/mnt/disk/jenkins/ci/workspace/chipset_9.1.0_boston/opensource/component_code/vendor/huawei/extra/build/build_script/kirin_kernel_release/kernel/include/linux/kernel.h"
	.file 138 "/mnt/disk/jenkins/ci/workspace/chipset_9.1.0_boston/opensource/component_code/vendor/huawei/extra/build/build_script/kirin_kernel_release/kernel/arch/arm64/include/asm/stack_pointer.h"
	.file 139 "/mnt/disk/jenkins/ci/workspace/chipset_9.1.0_boston/opensource/component_code/vendor/huawei/extra/build/build_script/kirin_kernel_release/kernel/arch/arm64/include/asm/hwcap.h"
	.file 140 "/mnt/disk/jenkins/ci/workspace/chipset_9.1.0_boston/opensource/component_code/vendor/huawei/extra/build/build_script/kirin_kernel_release/kernel/arch/arm64/include/asm/cpufeature.h"
	.file 141 "/mnt/disk/jenkins/ci/workspace/chipset_9.1.0_boston/opensource/component_code/vendor/huawei/extra/build/build_script/kirin_kernel_release/kernel/arch/arm64/include/asm/virt.h"
	.file 142 "/mnt/disk/jenkins/ci/workspace/chipset_9.1.0_boston/opensource/component_code/vendor/huawei/extra/build/build_script/kirin_kernel_release/kernel/include/linux/highuid.h"
	.file 143 "/mnt/disk/jenkins/ci/workspace/chipset_9.1.0_boston/opensource/component_code/vendor/huawei/extra/build/build_script/kirin_kernel_release/kernel/arch/arm64/include/asm/memory.h"
	.file 144 "/mnt/disk/jenkins/ci/workspace/chipset_9.1.0_boston/opensource/component_code/vendor/huawei/extra/build/build_script/kirin_kernel_release/kernel/include/asm-generic/percpu.h"
	.file 145 "/mnt/disk/jenkins/ci/workspace/chipset_9.1.0_boston/opensource/component_code/vendor/huawei/extra/build/build_script/kirin_kernel_release/kernel/include/linux/debug_locks.h"
	.file 146 "/mnt/disk/jenkins/ci/workspace/chipset_9.1.0_boston/opensource/component_code/vendor/huawei/extra/build/build_script/kirin_kernel_release/kernel/include/asm-generic/pgtable.h"
	.file 147 "/mnt/disk/jenkins/ci/workspace/chipset_9.1.0_boston/opensource/component_code/vendor/huawei/extra/build/build_script/kirin_kernel_release/kernel/arch/arm64/include/asm/irq.h"
	.file 148 "/mnt/disk/jenkins/ci/workspace/chipset_9.1.0_boston/opensource/component_code/vendor/huawei/extra/build/build_script/kirin_kernel_release/kernel/arch/arm64/include/asm/hardirq.h"
	.file 149 "/mnt/disk/jenkins/ci/workspace/chipset_9.1.0_boston/opensource/component_code/vendor/huawei/extra/build/build_script/kirin_kernel_release/kernel/include/linux/slab.h"
	.file 150 "/mnt/disk/jenkins/ci/workspace/chipset_9.1.0_boston/opensource/component_code/vendor/huawei/extra/build/build_script/kirin_kernel_release/kernel/include/trace/events/block.h"
	.file 151 "/mnt/disk/jenkins/ci/workspace/chipset_9.1.0_boston/opensource/component_code/vendor/huawei/extra/build/build_script/kirin_kernel_release/kernel/include/linux/timekeeping.h"
	.section	.note.GNU-stack,"",%progbits
