	.cpu generic+fp+simd
	.file	"pagecache_manage.c"
	.text
.Ltext0:
	.cfi_sections	.debug_frame
	.align	2
	.type	pch_user_statfs, %function
pch_user_statfs:
.LFB2945:
	.file 1 "/mnt/disk/jenkins/ci/workspace/chipset_9.1.0_boston/opensource/component_code/vendor/huawei/extra/build/build_script/kirin_kernel_release/kernel/mm/pagecache_manage.c"
	.loc 1 794 0
	.cfi_startproc
	stp	x29, x30, [sp, -176]!
	.cfi_def_cfa_offset 176
	.cfi_offset 29, -176
	.cfi_offset 30, -168
	.loc 1 804 0
	adrp	x0, .LC0
	mov	w1, 5
	.loc 1 794 0
	add	x29, sp, 0
	.cfi_def_cfa_register 29
	stp	x19, x20, [sp,16]
	.cfi_offset 19, -160
	.cfi_offset 20, -152
	.loc 1 794 0
	adrp	x20, __stack_chk_guard
	.loc 1 804 0
	add	x0, x0, :lo12:.LC0
	add	x2, x29, 32
	.loc 1 802 0
	str	xzr, [x29,160]
	stp	xzr, xzr, [x29,48]
	.loc 1 794 0
	ldr	x3, [x20,#:lo12:__stack_chk_guard]
	str	x3, [x29,168]
	.loc 1 802 0
	stp	xzr, xzr, [x29,64]
	stp	xzr, xzr, [x29,80]
	stp	xzr, xzr, [x29,96]
	stp	xzr, xzr, [x29,112]
	stp	xzr, xzr, [x29,128]
	stp	xzr, xzr, [x29,144]
	.loc 1 804 0
	bl	kern_path
.LVL0:
	.loc 1 805 0
	cbz	w0, .L7
.L2:
	.loc 1 821 0
	ldr	x2, [x29,168]
	ldr	x1, [x20,#:lo12:__stack_chk_guard]
	cmp	x2, x1
	bne	.L8
	ldp	x19, x20, [sp,16]
	.cfi_remember_state
	.cfi_restore 20
	.cfi_restore 19
	ldp	x29, x30, [sp], 176
	.cfi_restore 30
	.cfi_restore 29
	.cfi_def_cfa 31, 0
	ret
.L7:
	.cfi_restore_state
	.loc 1 806 0
	add	x1, x29, 48
	add	x0, x29, 32
	bl	vfs_statfs
.LVL1:
	mov	w19, w0
	.loc 1 807 0
	add	x0, x29, 32
	bl	path_put
.LVL2:
	mov	w0, w19
	.loc 1 810 0
	cbnz	w19, .L2
	.loc 1 813 0
	ldr	x1, [x29,80]
	.loc 1 814 0
	adrp	x2, .LANCHOR0
	.loc 1 813 0
	ldr	x3, [x29,64]
	lsl	x0, x1, 4
	add	x0, x0, x1, lsl 2
	.loc 1 814 0
	ldr	x2, [x2,#:lo12:.LANCHOR0]
	.loc 1 813 0
	add	x0, x0, x0, lsl 2
	.loc 1 814 0
	ldr	w2, [x2,296]
	.loc 1 813 0
	udiv	x0, x0, x3
	.loc 1 814 0
	cmp	w2, w0
	cset	w2, cs
	.loc 1 814 0 is_stmt 0 discriminator 1
	cmp	x1, 262144
	cset	w0, ls
	.loc 1 820 0 is_stmt 1
	and	w0, w2, w0
	b	.L2
.L8:
	.loc 1 821 0
	bl	__stack_chk_fail
.LVL3:
	.cfi_endproc
.LFE2945:
	.size	pch_user_statfs, .-pch_user_statfs
	.align	2
	.type	pch_timeout_work, %function
pch_timeout_work:
.LFB2946:
	.loc 1 824 0
	.cfi_startproc
.LVL4:
	stp	x29, x30, [sp, -80]!
	.cfi_def_cfa_offset 80
	.cfi_offset 29, -80
	.cfi_offset 30, -72
	add	x29, sp, 0
	.cfi_def_cfa_register 29
	stp	x19, x20, [sp,16]
	.cfi_offset 19, -64
	.cfi_offset 20, -56
	.loc 1 833 0
	adrp	x19, .LANCHOR0
	.loc 1 824 0
	adrp	x20, __stack_chk_guard
	str	x21, [sp,32]
	.cfi_offset 21, -48
	.loc 1 833 0
	ldr	x0, [x19,#:lo12:.LANCHOR0]
.LVL5:
	.loc 1 824 0
	ldr	x1, [x20,#:lo12:__stack_chk_guard]
	.loc 1 833 0
	add	x0, x0, 216
	.loc 1 824 0
	str	x1, [x29,72]
	.loc 1 833 0
	bl	down
.LVL6:
	.loc 1 834 0
	ldr	x1, [x19,#:lo12:.LANCHOR0]
	mov	w0, 1
	add	x1, x1, 264
	bl	set_bit
.LVL7:
.LBB492:
.LBB493:
	.loc 1 127 0
	ldr	x1, [x19,#:lo12:.LANCHOR0]
	ldr	w0, [x1,300]
.LBE493:
.LBE492:
	.loc 1 836 0
	tbz	x0, 0, .L24
	.loc 1 842 0
	ldr	x0, [x1,128]
	.loc 1 843 0
	ldr	x0, [x0,16]
	ldr	x21, [x0,248]
.LVL8:
	.loc 1 846 0
	bl	pch_user_statfs
.LVL9:
	.loc 1 847 0
	cmp	w0, 1
	.loc 1 846 0
	mov	w2, w0
.LVL10:
	.loc 1 847 0
	beq	.L25
.LVL11:
	.loc 1 851 0
	cbnz	w0, .L14
	.loc 1 852 0
	ldr	x0, [x19,#:lo12:.LANCHOR0]
	mov	w2, 16
.LVL12:
	.loc 1 853 0
	ldr	w1, [x0,276]
	.loc 1 852 0
	str	w2, [x0,288]
	.loc 1 853 0
	cbz	w1, .L26
	.loc 1 856 0
	cmp	w1, 1
	beq	.L27
.LVL13:
.L13:
	.loc 1 864 0
	add	x0, x29, 56
	add	x1, x29, 64
	bl	global_dirty_limits
.LVL14:
.LBB494:
.LBB495:
.LBB496:
.LBB497:
.LBB498:
.LBB499:
.LBB500:
	.file 2 "/mnt/disk/jenkins/ci/workspace/chipset_9.1.0_boston/opensource/component_code/vendor/huawei/extra/build/build_script/kirin_kernel_release/kernel/include/linux/compiler.h"
	.loc 2 247 0 discriminator 5
	adrp	x0, vm_zone_stat
	add	x0, x0, :lo12:vm_zone_stat
	ldr	x1, [x0,112]
.LBE500:
.LBE499:
.LBE498:
.LBE497:
.LBE496:
.LBE495:
.LBE494:
.LBB501:
.LBB502:
.LBB503:
.LBB504:
.LBB505:
.LBB506:
.LBB507:
	ldr	x2, [x0,168]
.LBE507:
.LBE506:
.LBE505:
.LBE504:
.LBE503:
.LBE502:
.LBE501:
.LBB508:
.LBB509:
.LBB510:
.LBB511:
.LBB512:
.LBB513:
.LBB514:
	ldr	x0, [x0,120]
	cmp	x2, xzr
	csel	x2, x2, xzr, ge
	cmp	x1, xzr
	csel	x1, x1, xzr, ge
	cmp	x0, xzr
	csel	x0, x0, xzr, ge
.LBE514:
.LBE513:
.LBE512:
.LBE511:
.LBE510:
.LBE509:
.LBE508:
	.loc 1 867 0
	add	x1, x2, x1
	add	x0, x1, x0
.LVL15:
	.loc 1 875 0
	ldr	x1, [x29,64]
	cmp	x0, x1
	bcc	.L18
	.loc 1 881 0
	adds	x0, x21, 80
.LVL16:
	beq	.L18
.LBB515:
.LBB516:
.LBB517:
.LBB518:
	.file 3 "/mnt/disk/jenkins/ci/workspace/chipset_9.1.0_boston/opensource/component_code/vendor/huawei/extra/build/build_script/kirin_kernel_release/kernel/include/asm-generic/bitops/non-atomic.h"
	.loc 3 105 0
	ldr	x1, [x21,88]
.LBE518:
.LBE517:
.LBE516:
.LBE515:
	.loc 1 887 0
	tbz	x1, 1, .L28
.LVL17:
.L18:
	.loc 1 890 0
	ldr	x1, [x19,#:lo12:.LANCHOR0]
.L24:
	add	x1, x1, 264
	mov	w0, 1
.LVL18:
	bl	clear_bit
.LVL19:
	.loc 1 891 0
	ldr	x0, [x19,#:lo12:.LANCHOR0]
	add	x0, x0, 216
	bl	up
.LVL20:
	.loc 1 892 0
	ldr	x1, [x29,72]
	ldr	x0, [x20,#:lo12:__stack_chk_guard]
	cmp	x1, x0
	bne	.L29
	ldp	x19, x20, [sp,16]
	.cfi_remember_state
	.cfi_restore 20
	.cfi_restore 19
	ldr	x21, [sp,32]
	.cfi_restore 21
.LVL21:
	ldp	x29, x30, [sp], 80
	.cfi_restore 30
	.cfi_restore 29
	.cfi_def_cfa 31, 0
	ret
.LVL22:
.L26:
	.cfi_restore_state
	.loc 1 854 0
	mov	w1, 8
	str	w1, [x0,284]
	.loc 1 855 0
	str	w1, [x0,280]
	b	.L13
.LVL23:
.L25:
	.loc 1 848 0
	ldr	x0, [x19,#:lo12:.LANCHOR0]
	mov	w1, 4
	str	w1, [x0,280]
	.loc 1 849 0
	str	w1, [x0,284]
	.loc 1 850 0
	mov	w1, 16
	str	w1, [x0,288]
	b	.L13
.LVL24:
.L27:
	.loc 1 857 0
	str	w2, [x0,284]
	.loc 1 858 0
	str	w2, [x0,280]
	b	.L13
.LVL25:
.L28:
	.loc 1 888 0
	bl	wb_start_background_writeback
.LVL26:
	.loc 1 890 0
	ldr	x1, [x19,#:lo12:.LANCHOR0]
	b	.L24
.L29:
	.loc 1 892 0
	bl	__stack_chk_fail
.LVL27:
.L14:
	.loc 1 861 0 discriminator 1
	adrp	x0, .LC1
.LVL28:
	adrp	x1, .LANCHOR1
	add	x1, x1, :lo12:.LANCHOR1
	add	x0, x0, :lo12:.LC1
	bl	printk
.LVL29:
	b	.L13
	.cfi_endproc
.LFE2946:
	.size	pch_timeout_work, .-pch_timeout_work
	.align	2
	.type	pch_timeout_timer, %function
pch_timeout_timer:
.LFB2947:
	.loc 1 895 0
	.cfi_startproc
.LVL30:
.LBB519:
.LBB520:
	.loc 1 780 0
	adrp	x0, .LANCHOR0
.LVL31:
.LBE520:
.LBE519:
	.loc 1 895 0
	stp	x29, x30, [sp, -16]!
	.cfi_def_cfa_offset 16
	.cfi_offset 29, -16
	.cfi_offset 30, -8
	add	x29, sp, 0
	.cfi_def_cfa_register 29
.LBB524:
.LBB523:
	.loc 1 780 0
	ldr	x2, [x0,#:lo12:.LANCHOR0]
.LBB521:
.LBB522:
	.loc 3 105 0
	ldr	x0, [x2,264]
.LBE522:
.LBE521:
.LBE523:
.LBE524:
	.loc 1 896 0
	tbnz	x0, 1, .L30
.LBB525:
.LBB526:
.LBB527:
.LBB528:
	.file 4 "/mnt/disk/jenkins/ci/workspace/chipset_9.1.0_boston/opensource/component_code/vendor/huawei/extra/build/build_script/kirin_kernel_release/kernel/include/linux/workqueue.h"
	.loc 4 477 0
	adrp	x1, system_wq
	mov	w0, 8
	add	x2, x2, 184
	ldr	x1, [x1,#:lo12:system_wq]
	bl	queue_work_on
.LVL32:
.L30:
.LBE528:
.LBE527:
.LBE526:
.LBE525:
	.loc 1 898 0
	ldp	x29, x30, [sp], 16
	.cfi_restore 30
	.cfi_restore 29
	.cfi_def_cfa 31, 0
	ret
	.cfi_endproc
.LFE2947:
	.size	pch_timeout_timer, .-pch_timeout_timer
	.align	2
	.type	pch_emui_bootstat_proc_open, %function
pch_emui_bootstat_proc_open:
.LFB2953:
	.loc 1 1083 0
	.cfi_startproc
.LVL33:
	stp	x29, x30, [sp, -16]!
	.cfi_def_cfa_offset 16
	.cfi_offset 29, -16
	.cfi_offset 30, -8
	.loc 1 1084 0
	mov	x0, x1
.LVL34:
	adrp	x1, pch_emui_bootstat_proc_show
.LVL35:
	.loc 1 1083 0
	add	x29, sp, 0
	.cfi_def_cfa_register 29
	.loc 1 1084 0
	mov	x2, 0
	add	x1, x1, :lo12:pch_emui_bootstat_proc_show
	.loc 1 1083 0
	.loc 1 1084 0
	bl	single_open
.LVL36:
	.loc 1 1085 0
	ldp	x29, x30, [sp], 16
	.cfi_restore 30
	.cfi_restore 29
	.cfi_def_cfa 31, 0
	ret
	.cfi_endproc
.LFE2953:
	.size	pch_emui_bootstat_proc_open, .-pch_emui_bootstat_proc_open
	.align	2
	.type	pch_emui_bootstat_proc_show, %function
pch_emui_bootstat_proc_show:
.LFB2952:
	.loc 1 1077 0
	.cfi_startproc
.LVL37:
	.loc 1 1078 0
	adrp	x2, .LANCHOR0
	adrp	x1, .LC2
.LVL38:
	.loc 1 1077 0
	stp	x29, x30, [sp, -16]!
	.cfi_def_cfa_offset 16
	.cfi_offset 29, -16
	.cfi_offset 30, -8
	.loc 1 1078 0
	add	x1, x1, :lo12:.LC2
	.loc 1 1077 0
	add	x29, sp, 0
	.cfi_def_cfa_register 29
	.loc 1 1078 0
	ldr	x2, [x2,#:lo12:.LANCHOR0]
	ldr	w2, [x2,272]
	bl	seq_printf
.LVL39:
	.loc 1 1080 0
	mov	w0, 0
	ldp	x29, x30, [sp], 16
	.cfi_restore 30
	.cfi_restore 29
	.cfi_def_cfa 31, 0
	ret
	.cfi_endproc
.LFE2952:
	.size	pch_emui_bootstat_proc_show, .-pch_emui_bootstat_proc_show
	.align	2
	.type	pch_emui_bootstat_proc_write, %function
pch_emui_bootstat_proc_write:
.LFB2954:
	.loc 1 1089 0
	.cfi_startproc
.LVL40:
	stp	x29, x30, [sp, -64]!
	.cfi_def_cfa_offset 64
	.cfi_offset 29, -64
	.cfi_offset 30, -56
	.loc 1 1099 0
	cmp	x1, xzr
	.loc 1 1089 0
	add	x29, sp, 0
	.cfi_def_cfa_register 29
	stp	x21, x22, [sp,32]
	.cfi_offset 21, -32
	.cfi_offset 22, -24
	.loc 1 1093 0
	adrp	x21, .LANCHOR0
	.loc 1 1099 0
	cset	w4, eq
	.loc 1 1089 0
	stp	x19, x20, [sp,16]
	.cfi_offset 19, -48
	.cfi_offset 20, -40
	.loc 1 1089 0
	adrp	x20, __stack_chk_guard
	mov	x19, x2
	.loc 1 1093 0
	ldr	x0, [x21,#:lo12:.LANCHOR0]
.LVL41:
	.loc 1 1089 0
	ldr	x2, [x20,#:lo12:__stack_chk_guard]
.LVL42:
	.loc 1 1093 0
	ldr	w0, [x0,272]
	.loc 1 1089 0
	str	x2, [x29,56]
	.loc 1 1093 0
	cmp	w0, 1
	cset	w0, eq
	.loc 1 1099 0
	orr	w0, w4, w0
	cbnz	w0, .L41
	cbz	x19, .L41
.LBB529:
.LBB530:
.LBB531:
.LBB532:
.LBB533:
.LBB534:
	.file 5 "/mnt/disk/jenkins/ci/workspace/chipset_9.1.0_boston/opensource/component_code/vendor/huawei/extra/build/build_script/kirin_kernel_release/kernel/arch/arm64/include/asm/current.h"
	.loc 5 20 0
#APP
// 20 "/mnt/disk/jenkins/ci/workspace/chipset_9.1.0_boston/opensource/component_code/vendor/huawei/extra/build/build_script/kirin_kernel_release/kernel/arch/arm64/include/asm/current.h" 1
	mrs x0, sp_el0
// 0 "" 2
.LVL43:
#NO_APP
.LBE534:
.LBE533:
	.file 6 "/mnt/disk/jenkins/ci/workspace/chipset_9.1.0_boston/opensource/component_code/vendor/huawei/extra/build/build_script/kirin_kernel_release/kernel/arch/arm64/include/asm/uaccess.h"
	.loc 6 115 0
	mov	x2, x1
.LVL44:
	.loc 6 112 0
	ldr	x4, [x0,8]
.LVL45:
	.loc 6 115 0
#APP
// 115 "/mnt/disk/jenkins/ci/workspace/chipset_9.1.0_boston/opensource/component_code/vendor/huawei/extra/build/build_script/kirin_kernel_release/kernel/arch/arm64/include/asm/uaccess.h" 1
		adds	x2, x2, 1
	csel	x4, xzr, x4, hi
	csinv	x2, x2, xzr, cc
	sbcs	xzr, x2, x4
	cset	x2, ls

// 0 "" 2
#NO_APP
.LBE532:
.LBE531:
	.loc 6 445 0
	cbnz	x2, .L47
	add	x0, x29, 55
.LVL46:
	.loc 6 442 0
	mov	x2, 1
.LVL47:
.L36:
	.loc 6 450 0
	mov	w1, 0
.LVL48:
	bl	memset
.LVL49:
.LBE530:
.LBE529:
	.loc 1 1103 0
	mov	x0, -1
.LVL50:
.L35:
	.loc 1 1116 0
	ldr	x2, [x29,56]
	ldr	x1, [x20,#:lo12:__stack_chk_guard]
.LVL51:
	cmp	x2, x1
	bne	.L48
	ldp	x19, x20, [sp,16]
	.cfi_remember_state
	.cfi_restore 20
	.cfi_restore 19
.LVL52:
	ldp	x21, x22, [sp,32]
	.cfi_restore 22
	.cfi_restore 21
	ldp	x29, x30, [sp], 64
	.cfi_restore 30
	.cfi_restore 29
	.cfi_def_cfa 31, 0
	ret
.LVL53:
.L47:
	.cfi_restore_state
.LBB536:
.LBB535:
	.loc 6 447 0
	add	x22, x29, 55
	mov	x2, 1
.LVL54:
	mov	x0, x22
.LVL55:
	bl	__arch_copy_from_user
.LVL56:
	mov	x2, x0
.LVL57:
	.loc 6 449 0
	cbnz	x0, .L49
.LVL58:
.LBE535:
.LBE536:
	.loc 1 1107 0
	ldrb	w0, [x29,55]
.LVL59:
	cmp	w0, 49
	bne	.L50
	.loc 1 1112 0
	ldr	x2, [x21,#:lo12:.LANCHOR0]
.LVL60:
	mov	w1, 1
	.loc 1 1115 0
	mov	x0, x19
.LVL61:
	.loc 1 1112 0
	str	w1, [x2,272]
	.loc 1 1113 0
	adrp	x2, .LANCHOR2
	str	w1, [x2,#:lo12:.LANCHOR2]
	.loc 1 1115 0
	b	.L35
.LVL62:
.L41:
	.loc 1 1100 0
	mov	x0, -1
	b	.L35
.LVL63:
.L48:
	.loc 1 1116 0
	bl	__stack_chk_fail
.LVL64:
.L50:
	.loc 1 1108 0 discriminator 1
	adrp	x1, .LANCHOR1
	adrp	x0, .LC3
.LVL65:
	add	x1, x1, :lo12:.LANCHOR1
	add	x0, x0, :lo12:.LC3
	add	x1, x1, 24
	bl	printk
.LVL66:
	.loc 1 1109 0
	mov	x0, -1
	b	.L35
.LVL67:
.L49:
	sub	x0, x22, x0
.LVL68:
	add	x0, x0, 1
	b	.L36
	.cfi_endproc
.LFE2954:
	.size	pch_emui_bootstat_proc_write, .-pch_emui_bootstat_proc_write
	.section	.init.text,"ax",%progbits
	.align	2
	.type	hisi_page_cache_manage_init, %function
hisi_page_cache_manage_init:
.LFB2956:
	.loc 1 1147 0
	.cfi_startproc
	stp	x29, x30, [sp, -64]!
	.cfi_def_cfa_offset 64
	.cfi_offset 29, -64
	.cfi_offset 30, -56
	add	x29, sp, 0
	.cfi_def_cfa_register 29
	stp	x19, x20, [sp,16]
	.cfi_offset 19, -48
	.cfi_offset 20, -40
	.loc 1 1156 0
	adrp	x20, .LANCHOR0
	.loc 1 1147 0
	str	x23, [sp,48]
	.loc 1 1156 0
	add	x0, x20, :lo12:.LANCHOR0
	.loc 1 1147 0
	stp	x21, x22, [sp,32]
	.cfi_offset 23, -16
	.cfi_offset 21, -32
	.cfi_offset 22, -24
	.loc 1 1156 0
	ldr	w0, [x0,8]
	cmp	w0, 1
	bls	.L52
	.loc 1 1156 0 is_stmt 0 discriminator 1
	adrp	x1, .LANCHOR1
	adrp	x0, .LC4
	add	x1, x1, :lo12:.LANCHOR1
	add	x0, x0, :lo12:.LC4
	add	x1, x1, 56
	bl	printk
.LVL69:
.L52:
.LBB553:
.LBB554:
.LBB555:
	.file 7 "/mnt/disk/jenkins/ci/workspace/chipset_9.1.0_boston/opensource/component_code/vendor/huawei/extra/build/build_script/kirin_kernel_release/kernel/include/linux/slab.h"
	.loc 7 499 0 is_stmt 1
	adrp	x0, kmalloc_caches+72
	mov	w1, 32960
	movk	w1, 0x240, lsl 16
	mov	x2, 304
.LBE555:
.LBE554:
.LBE553:
	.loc 1 1158 0
	adrp	x21, .LANCHOR0
	.loc 1 1160 0
	mov	w22, -12
.LBB558:
.LBB557:
.LBB556:
	.loc 7 499 0
	ldr	x0, [x0,#:lo12:kmalloc_caches+72]
	bl	kmem_cache_alloc_trace
.LVL70:
.LBE556:
.LBE557:
.LBE558:
	.loc 1 1158 0
	str	x0, [x20,#:lo12:.LANCHOR0]
	.loc 1 1159 0
	cbz	x0, .L53
	.loc 1 1162 0
	adrp	x1, .LANCHOR2
	.loc 1 1163 0
	mov	w23, 8
	.loc 1 1164 0
	mov	w22, 16
	.loc 1 1163 0
	str	w23, [x0,292]
	.loc 1 1164 0
	str	w22, [x0,288]
	adrp	x19, .LANCHOR1
	.loc 1 1162 0
	ldr	w1, [x1,#:lo12:.LANCHOR2]
	str	w1, [x0,272]
	.loc 1 1165 0
	mov	w1, 1
	.loc 1 1166 0
	str	wzr, [x0,300]
	.loc 1 1165 0
	str	w1, [x0,296]
	.loc 1 1167 0
	bl	get_bootdevice_type
.LVL71:
	.loc 1 1168 0
	cbnz	w0, .L54
	.loc 1 1169 0
	ldr	x0, [x21,#:lo12:.LANCHOR0]
.LVL72:
	str	wzr, [x0,276]
	.loc 1 1170 0
	str	w23, [x0,284]
	.loc 1 1171 0
	str	w23, [x0,280]
	b	.L55
.LVL73:
.L54:
	.loc 1 1172 0
	cmp	w0, 1
	bne	.L56
	.loc 1 1173 0
	ldr	x1, [x21,#:lo12:.LANCHOR0]
	str	w0, [x1,276]
	.loc 1 1174 0
	str	w22, [x1,284]
	.loc 1 1175 0
	str	w22, [x1,280]
	b	.L55
.L56:
	.loc 1 1177 0 discriminator 1
	add	x1, x19, :lo12:.LANCHOR1
	adrp	x0, .LC5
.LVL74:
	add	x1, x1, 56
	add	x0, x0, :lo12:.LC5
	.loc 1 1243 0
	mov	w22, -1
	.loc 1 1177 0 discriminator 1
	bl	printk
.LVL75:
	.loc 1 1240 0
	ldr	x0, [x21,#:lo12:.LANCHOR0]
	bl	kfree
.LVL76:
	.loc 1 1241 0
	str	xzr, [x21,#:lo12:.LANCHOR0]
	.loc 1 1243 0
	b	.L53
.LVL77:
.L55:
.LBB559:
.LBB560:
	.loc 1 1128 0
	adrp	x0, .LC6
.LVL78:
	mov	x1, 0
	add	x0, x0, :lo12:.LC6
	bl	proc_mkdir
.LVL79:
	cbnz	x0, .L57
	.loc 1 1129 0 discriminator 1
	add	x1, x19, :lo12:.LANCHOR1
	adrp	x0, .LC7
	add	x1, x1, 88
	add	x0, x0, :lo12:.LC7
	bl	printk
.LVL80:
	b	.L58
.L57:
.LBB561:
.LBB562:
	.file 8 "/mnt/disk/jenkins/ci/workspace/chipset_9.1.0_boston/opensource/component_code/vendor/huawei/extra/build/build_script/kirin_kernel_release/kernel/include/linux/proc_fs.h"
	.loc 8 34 0
	add	x3, x19, :lo12:.LANCHOR1
	adrp	x0, .LC8
	add	x0, x0, :lo12:.LC8
	mov	w1, 432
	mov	x2, 0
	add	x3, x3, 120
	mov	x4, 0
	bl	proc_create_data
.LVL81:
.L58:
.LBE562:
.LBE561:
.LBE560:
.LBE559:
	.loc 1 1220 0
	ldr	x0, [x20,#:lo12:.LANCHOR0]
	mov	w1, 0
	mov	x2, 0
	mov	x3, 0
	add	x0, x0, 136
	add	x21, x20, :lo12:.LANCHOR0
	.loc 1 1229 0
	mov	w22, 0
	.loc 1 1220 0
	bl	init_timer_key
.LVL82:
	ldr	x0, [x20,#:lo12:.LANCHOR0]
	adrp	x2, pch_timeout_timer
	add	x2, x2, :lo12:pch_timeout_timer
.LBB563:
.LBB564:
	.file 9 "/mnt/disk/jenkins/ci/workspace/chipset_9.1.0_boston/opensource/component_code/vendor/huawei/extra/build/build_script/kirin_kernel_release/kernel/include/linux/semaphore.h"
	.loc 9 35 0
	mov	w4, 20141
.LBE564:
.LBE563:
	.loc 1 1222 0
	add	x3, x0, 192
.LBB570:
.LBB565:
	.loc 9 35 0
	movk	w4, 0xdead, lsl 16
.LBE565:
.LBE570:
	.loc 1 1220 0
	str	x2, [x0,160]
	.loc 1 1222 0
	mov	x2, 68719476704
	str	x2, [x0,184]
	adrp	x2, pch_timeout_work
	add	x2, x2, :lo12:pch_timeout_work
	str	x2, [x0,208]
.LBB571:
.LBB566:
	.loc 9 35 0
	mov	w2, -1
	str	w2, [x0,224]
	mov	x2, -1
	str	x2, [x0,232]
	mov	w2, 1
.LBE566:
.LBE571:
.LBB572:
.LBB573:
	.loc 1 162 0
	ldr	w1, [x0,300]
.LBE573:
.LBE572:
.LBB576:
.LBB567:
	.loc 9 35 0
	str	w2, [x0,240]
.LBE567:
.LBE576:
	.loc 1 1227 0
	ldr	w2, [x21,8]
.LBB577:
.LBB574:
	.loc 1 162 0
	orr	w1, w1, 4
.LBE574:
.LBE577:
.LBB578:
.LBB579:
.LBB580:
.LBB581:
.LBB582:
	.loc 2 276 0
	str	x3, [x0,192]
.LBE582:
.LBE581:
.LBE580:
	.file 10 "/mnt/disk/jenkins/ci/workspace/chipset_9.1.0_boston/opensource/component_code/vendor/huawei/extra/build/build_script/kirin_kernel_release/kernel/include/linux/list.h"
	.loc 10 28 0
	str	x3, [x0,200]
.LBE579:
.LBE578:
	.loc 1 1227 0
	cmp	w2, 1
.LBB583:
.LBB568:
	.loc 9 35 0
	add	x3, x0, 248
.LBE568:
.LBE583:
	.loc 1 1220 0
	str	x0, [x0,168]
.LBB584:
.LBB569:
	.loc 9 35 0
	strh	wzr, [x0,216]
	strh	wzr, [x0,218]
	str	w4, [x0,220]
	str	x3, [x0,248]
	str	x3, [x0,256]
.LBE569:
.LBE584:
.LBB585:
.LBB575:
	.loc 1 162 0
	str	w1, [x0,300]
.LBE575:
.LBE585:
	.loc 1 1227 0
	bls	.L53
	.loc 1 1227 0 is_stmt 0 discriminator 1
	add	x1, x19, :lo12:.LANCHOR1
	adrp	x0, .LC9
	add	x0, x0, :lo12:.LC9
	add	x1, x1, 56
	bl	printk
.LVL83:
.L53:
	.loc 1 1244 0 is_stmt 1
	mov	w0, w22
	ldr	x23, [sp,48]
	.cfi_restore 23
	ldp	x19, x20, [sp,16]
	.cfi_restore 20
	.cfi_restore 19
	ldp	x21, x22, [sp,32]
	.cfi_restore 22
	.cfi_restore 21
	ldp	x29, x30, [sp], 64
	.cfi_restore 30
	.cfi_restore 29
	.cfi_def_cfa 31, 0
	ret
	.cfi_endproc
.LFE2956:
	.size	hisi_page_cache_manage_init, .-hisi_page_cache_manage_init
	.text
	.align	2
	.type	pch_io_idle_notify_handler, %function
pch_io_idle_notify_handler:
.LFB2948:
	.loc 1 912 0
	.cfi_startproc
.LVL84:
	stp	x29, x30, [sp, -16]!
	.cfi_def_cfa_offset 16
	.cfi_offset 29, -16
	.cfi_offset 30, -8
	.loc 1 913 0
	cmp	w1, 1
	.loc 1 912 0
	add	x29, sp, 0
	.cfi_def_cfa_register 29
	.loc 1 913 0
	beq	.L64
	.loc 1 915 0
	cbnz	w1, .L63
	.loc 1 916 0
	adrp	x0, .LANCHOR0
.LVL85:
	ldr	x0, [x0,#:lo12:.LANCHOR0]
	add	x0, x0, 136
	bl	del_timer
.LVL86:
.L63:
	.loc 1 920 0
	mov	w0, 0
.LVL87:
	ldp	x29, x30, [sp], 16
	.cfi_remember_state
	.cfi_restore 30
	.cfi_restore 29
	.cfi_def_cfa 31, 0
	ret
.LVL88:
.L64:
	.cfi_restore_state
.LBB592:
.LBB593:
	.loc 1 914 0
	adrp	x0, jiffies
.LVL89:
	ldr	x1, [x0,#:lo12:jiffies]
.LVL90:
	adrp	x0, .LANCHOR0
	.loc 1 914 0 is_stmt 0 discriminator 1
	add	x1, x1, 1250
	.loc 1 914 0
	ldr	x0, [x0,#:lo12:.LANCHOR0]
	.loc 1 914 0 discriminator 1
	add	x0, x0, 136
	bl	mod_timer
.LVL91:
	b	.L63
.LBE593:
.LBE592:
	.cfi_endproc
.LFE2948:
	.size	pch_io_idle_notify_handler, .-pch_io_idle_notify_handler
	.section	.exit.text,"ax",%progbits
	.align	2
	.type	hisi_page_cache_manage_exit, %function
hisi_page_cache_manage_exit:
.LFB2957:
	.loc 1 1255 0 is_stmt 1
	.cfi_startproc
	stp	x29, x30, [sp, -32]!
	.cfi_def_cfa_offset 32
	.cfi_offset 29, -32
	.cfi_offset 30, -24
	add	x29, sp, 0
	.cfi_def_cfa_register 29
	stp	x19, x20, [sp,16]
	.cfi_offset 19, -16
	.cfi_offset 20, -8
	.loc 1 1256 0
	adrp	x19, .LANCHOR0
	add	x0, x19, :lo12:.LANCHOR0
	ldr	w0, [x0,8]
	cmp	w0, 1
	bls	.L66
	.loc 1 1256 0 is_stmt 0 discriminator 1
	adrp	x1, .LANCHOR1
	adrp	x0, .LC10
	add	x1, x1, :lo12:.LANCHOR1
	add	x0, x0, :lo12:.LC10
	add	x1, x1, 360
	bl	printk
.LVL92:
.L66:
	.loc 1 1258 0 is_stmt 1
	adrp	x0, .LC8
	mov	x1, 0
	add	x0, x0, :lo12:.LC8
	.loc 1 1264 0
	add	x20, x19, :lo12:.LANCHOR0
	.loc 1 1258 0
	bl	remove_proc_entry
.LVL93:
	.loc 1 1259 0
	adrp	x0, .LC6
	mov	x1, 0
	add	x0, x0, :lo12:.LC6
	bl	remove_proc_entry
.LVL94:
	.loc 1 1264 0
	ldr	x0, [x19,#:lo12:.LANCHOR0]
	bl	kfree
.LVL95:
	.loc 1 1265 0
	str	xzr, [x19,#:lo12:.LANCHOR0]
	.loc 1 1266 0
	ldr	w0, [x20,8]
	cmp	w0, 1
	bls	.L65
.LBB596:
.LBB597:
	.loc 1 1266 0 is_stmt 0 discriminator 1
	adrp	x1, .LANCHOR1
	adrp	x0, .LC11
	add	x1, x1, :lo12:.LANCHOR1
	add	x0, x0, :lo12:.LC11
	add	x1, x1, 360
	bl	printk
.LVL96:
.L65:
.LBE597:
.LBE596:
	.loc 1 1267 0 is_stmt 1
	ldp	x19, x20, [sp,16]
	.cfi_restore 20
	.cfi_restore 19
	ldp	x29, x30, [sp], 32
	.cfi_restore 30
	.cfi_restore 29
	.cfi_def_cfa 31, 0
	ret
	.cfi_endproc
.LFE2957:
	.size	hisi_page_cache_manage_exit, .-hisi_page_cache_manage_exit
	.text
	.align	2
	.global	pch_lowmem_check
	.type	pch_lowmem_check, %function
pch_lowmem_check:
.LFB2932:
	.loc 1 269 0
	.cfi_startproc
	stp	x29, x30, [sp, -32]!
	.cfi_def_cfa_offset 32
	.cfi_offset 29, -32
	.cfi_offset 30, -24
	add	x29, sp, 0
	.cfi_def_cfa_register 29
	stp	x19, x20, [sp,16]
	.cfi_offset 19, -16
	.cfi_offset 20, -8
	.loc 1 274 0
	bl	first_online_pgdat
.LVL97:
	mov	x20, x0
	.loc 1 276 0
	cbz	x0, .L70
	.loc 1 279 0
	ldr	x2, [x0,16]
	.loc 1 280 0
	mov	w1, 0
	mov	w3, 0
	mov	w4, 0
	add	x2, x2, 2
	bl	zone_watermark_ok
.LVL98:
	uxtb	w19, w0
	.loc 1 284 0
	ldr	x2, [x20,8]
	mov	x0, x20
	mov	w1, 0
	mov	w3, 0
	mov	w4, 0
	.loc 1 272 0
	eor	w19, w19, 1
	.loc 1 284 0
	bl	zone_watermark_ok
.LVL99:
	uxtb	w0, w0
	.loc 1 272 0
	cmp	w0, wzr
	mov	w0, 2
	csel	w0, w19, w0, ne
.LVL100:
.LVL101:
	.loc 1 288 0
	ldp	x19, x20, [sp,16]
	.cfi_remember_state
	.cfi_restore 20
	.cfi_restore 19
	ldp	x29, x30, [sp], 32
	.cfi_restore 30
	.cfi_restore 29
	.cfi_def_cfa 31, 0
	ret
.L70:
	.cfi_restore_state
	.loc 1 277 0
	mov	w0, 0
.LVL102:
.LVL103:
	.loc 1 288 0
	ldp	x19, x20, [sp,16]
	.cfi_restore 19
	.cfi_restore 20
	ldp	x29, x30, [sp], 32
	.cfi_restore 29
	.cfi_restore 30
	.cfi_def_cfa 31, 0
	ret
	.cfi_endproc
.LFE2932:
	.size	pch_lowmem_check, .-pch_lowmem_check
	.align	2
	.global	pch_lowmem_check2
	.type	pch_lowmem_check2, %function
pch_lowmem_check2:
.LFB2933:
	.loc 1 301 0
	.cfi_startproc
	stp	x29, x30, [sp, -48]!
	.cfi_def_cfa_offset 48
	.cfi_offset 29, -48
	.cfi_offset 30, -40
	add	x29, sp, 0
	.cfi_def_cfa_register 29
	str	x21, [sp,32]
	.cfi_offset 21, -16
.LBB598:
.LBB599:
.LBB600:
.LBB601:
.LBB602:
.LBB603:
.LBB604:
	.loc 2 247 0 discriminator 5
	adrp	x21, vm_zone_stat
.LBE604:
.LBE603:
.LBE602:
.LBE601:
.LBE600:
.LBE599:
.LBE598:
	.loc 1 301 0
	stp	x19, x20, [sp,16]
	.cfi_offset 19, -32
	.cfi_offset 20, -24
.LBB611:
.LBB610:
.LBB609:
.LBB608:
.LBB607:
.LBB606:
.LBB605:
	.loc 2 247 0 discriminator 5
	add	x20, x21, :lo12:vm_zone_stat
	ldr	x0, [x20,104]
.LBE605:
.LBE606:
.LBE607:
.LBE608:
.LBE609:
.LBE610:
.LBE611:
.LBB612:
.LBB613:
.LBB614:
.LBB615:
.LBB616:
.LBB617:
.LBB618:
	ldr	x19, [x20,136]
	cmp	x0, xzr
	csel	x0, x0, xzr, ge
	cmp	x19, xzr
	csel	x19, x19, xzr, ge
.LBE618:
.LBE617:
.LBE616:
.LBE615:
.LBE614:
.LBE613:
.LBE612:
	.loc 1 306 0
	sub	x19, x0, x19
	.loc 1 308 0
	bl	total_swapcache_pages
.LVL104:
.LBB619:
.LBB620:
.LBB621:
.LBB622:
.LBB623:
.LBB624:
.LBB625:
	.loc 2 247 0 discriminator 5
	ldr	x1, [x21,#:lo12:vm_zone_stat]
.LBE625:
.LBE624:
.LBE623:
.LBE622:
.LBE621:
.LBE620:
.LBE619:
	.loc 1 309 0
	adrp	x3, totalreserve_pages
.LBB626:
.LBB627:
.LBB628:
.LBB629:
.LBB630:
.LBB631:
.LBB632:
	.loc 2 247 0 discriminator 5
	ldr	x2, [x20,152]
.LBE632:
.LBE631:
.LBE630:
.LBE629:
.LBE628:
.LBE627:
.LBE626:
	.loc 1 306 0
	sub	x0, x19, x0
.LVL105:
	cmp	x1, xzr
	csel	x1, x1, xzr, ge
	cmp	x2, xzr
	csel	x2, x2, xzr, ge
	.loc 1 309 0
	ldr	x3, [x3,#:lo12:totalreserve_pages]
	.loc 1 327 0
	cmp	x0, 1535
	.loc 1 309 0
	sub	x1, x1, x2
	sub	x1, x1, x3
.LVL106:
	.loc 1 327 0
	bhi	.L81
	cmp	x1, 1535
	bls	.L80
.L81:
	cmp	x0, 2047
	bhi	.L82
	cmp	x1, 2047
	bls	.L80
.L82:
	cmp	x0, 4095
	bhi	.L83
	cmp	x1, 4095
	bls	.L80
.L83:
	mov	x2, 16383
	.loc 1 332 0
	ldr	x21, [sp,32]
	.cfi_remember_state
	.cfi_restore 21
	.loc 1 327 0
	cmp	x0, x2
	cset	w3, ls
	cmp	x1, x2
	cset	w0, ls
.LVL107:
	.loc 1 328 0
	and	w0, w3, w0
	.loc 1 332 0
	ldp	x19, x20, [sp,16]
	.cfi_restore 20
	.cfi_restore 19
	ldp	x29, x30, [sp], 48
	.cfi_restore 30
	.cfi_restore 29
	.cfi_def_cfa 31, 0
	ret
.LVL108:
.L80:
	.cfi_restore_state
	.loc 1 328 0
	mov	w0, 1
.LVL109:
	.loc 1 332 0
	ldr	x21, [sp,32]
	.cfi_restore 21
	ldp	x19, x20, [sp,16]
	.cfi_restore 19
	.cfi_restore 20
	ldp	x29, x30, [sp], 48
	.cfi_restore 29
	.cfi_restore 30
	.cfi_def_cfa 31, 0
	ret
	.cfi_endproc
.LFE2933:
	.size	pch_lowmem_check2, .-pch_lowmem_check2
	.align	2
	.global	pch_get_page
	.type	pch_get_page, %function
pch_get_page:
.LFB2934:
	.loc 1 362 0
	.cfi_startproc
.LVL110:
	stp	x29, x30, [sp, -16]!
	.cfi_def_cfa_offset 16
	.cfi_offset 29, -16
	.cfi_offset 30, -8
	add	x29, sp, 0
	.cfi_def_cfa_register 29
	.loc 1 390 0
	bl	pagecache_get_page
.LVL111:
	.loc 1 391 0
	ldp	x29, x30, [sp], 16
	.cfi_restore 30
	.cfi_restore 29
	.cfi_def_cfa 31, 0
	ret
	.cfi_endproc
.LFE2934:
	.size	pch_get_page, .-pch_get_page
	.align	2
	.global	pch_shrink_read_pages
	.type	pch_shrink_read_pages, %function
pch_shrink_read_pages:
.LFB2935:
	.loc 1 403 0
	.cfi_startproc
.LVL112:
	stp	x29, x30, [sp, -32]!
	.cfi_def_cfa_offset 32
	.cfi_offset 29, -32
	.cfi_offset 30, -24
	add	x29, sp, 0
	.cfi_def_cfa_register 29
	stp	x19, x20, [sp,16]
	.cfi_offset 19, -16
	.cfi_offset 20, -8
	.loc 1 406 0
	adrp	x20, .LANCHOR0
	.loc 1 403 0
	mov	x19, x0
	.loc 1 406 0
	ldr	x0, [x20,#:lo12:.LANCHOR0]
.LVL113:
	ldr	w1, [x0,272]
	cbz	w1, .L98
	.loc 1 409 0
	ldr	w1, [x0,284]
	cmp	x19, x1
	bls	.L97
	.loc 1 410 0
	ldr	w19, [x0,280]
.L97:
	.loc 1 414 0
	bl	pch_lowmem_check
.LVL114:
	cmp	w0, wzr
	ble	.L98
	.loc 1 415 0
	ldr	x0, [x20,#:lo12:.LANCHOR0]
	ldr	w0, [x0,292]
.LVL115:
	cmp	x19, x0
	csel	x19, x19, x0, ls
.LVL116:
.L98:
.LBB633:
	.loc 1 418 0
	cmp	x19, 512
	mov	x0, 512
	csel	x0, x19, x0, ls
.LBE633:
	.loc 1 419 0
	ldp	x19, x20, [sp,16]
	.cfi_restore 20
	.cfi_restore 19
.LVL117:
	ldp	x29, x30, [sp], 32
	.cfi_restore 30
	.cfi_restore 29
	.cfi_def_cfa 31, 0
	ret
	.cfi_endproc
.LFE2935:
	.size	pch_shrink_read_pages, .-pch_shrink_read_pages
	.align	2
	.global	pch_shrink_mmap_pages
	.type	pch_shrink_mmap_pages, %function
pch_shrink_mmap_pages:
.LFB2936:
	.loc 1 430 0
	.cfi_startproc
.LVL118:
	stp	x29, x30, [sp, -32]!
	.cfi_def_cfa_offset 32
	.cfi_offset 29, -32
	.cfi_offset 30, -24
	add	x29, sp, 0
	.cfi_def_cfa_register 29
	stp	x19, x20, [sp,16]
	.cfi_offset 19, -16
	.cfi_offset 20, -8
	.loc 1 433 0
	adrp	x20, .LANCHOR0
	ldr	x1, [x20,#:lo12:.LANCHOR0]
	ldr	w2, [x1,272]
	cbz	w2, .L103
	.loc 1 436 0
	ldr	w19, [x1,280]
.LVL119:
	cmp	x0, x19
	csel	x19, x0, x19, ls
	.loc 1 441 0
	bl	pch_lowmem_check
.LVL120:
	cmp	w0, wzr
	ble	.L102
	.loc 1 442 0
	ldr	x0, [x20,#:lo12:.LANCHOR0]
	ldr	w0, [x0,292]
.LVL121:
	cmp	x19, x0
	csel	x19, x19, x0, ls
.LVL122:
.L102:
.LBB636:
	.loc 1 445 0
	cmp	x19, 512
	mov	x0, 512
	csel	x0, x19, x0, ls
.LBE636:
	.loc 1 446 0
	ldp	x19, x20, [sp,16]
	.cfi_remember_state
	.cfi_restore 20
	.cfi_restore 19
.LVL123:
	ldp	x29, x30, [sp], 32
	.cfi_restore 30
	.cfi_restore 29
	.cfi_def_cfa 31, 0
	ret
.LVL124:
.L103:
	.cfi_restore_state
.LBB637:
	.loc 1 434 0
	cmp	x0, 512
	mov	x1, 512
	csel	x0, x0, x1, ls
.LVL125:
.LBE637:
	.loc 1 446 0
	ldp	x19, x20, [sp,16]
	.cfi_restore 19
	.cfi_restore 20
	ldp	x29, x30, [sp], 32
	.cfi_restore 29
	.cfi_restore 30
	.cfi_def_cfa 31, 0
	ret
	.cfi_endproc
.LFE2936:
	.size	pch_shrink_mmap_pages, .-pch_shrink_mmap_pages
	.align	2
	.global	pch_shrink_mmap_async_pages
	.type	pch_shrink_mmap_async_pages, %function
pch_shrink_mmap_async_pages:
.LFB2937:
	.loc 1 457 0
	.cfi_startproc
.LVL126:
	.loc 1 460 0
	adrp	x1, .LANCHOR0
	.loc 1 457 0
	stp	x29, x30, [sp, -32]!
	.cfi_def_cfa_offset 32
	.cfi_offset 29, -32
	.cfi_offset 30, -24
	add	x29, sp, 0
	.cfi_def_cfa_register 29
	.loc 1 460 0
	ldr	x1, [x1,#:lo12:.LANCHOR0]
	.loc 1 457 0
	str	x19, [sp,16]
	.cfi_offset 19, -16
	.loc 1 460 0
	ldr	w1, [x1,272]
	cbnz	w1, .L105
.LBB638:
	.loc 1 461 0
	cmp	x0, 512
	mov	x1, 512
	csel	x0, x0, x1, ls
.LVL127:
.LBE638:
	.loc 1 469 0
	ldr	x19, [sp,16]
	.cfi_remember_state
	.cfi_restore 19
	ldp	x29, x30, [sp], 32
	.cfi_restore 30
	.cfi_restore 29
	.cfi_def_cfa 31, 0
	ret
.LVL128:
.L105:
	.cfi_restore_state
	mov	x19, x0
	.loc 1 463 0
	bl	pch_lowmem_check
.LVL129:
	.loc 1 466 0
	cmp	w0, wzr
	csel	x0, x19, xzr, eq
	.loc 1 469 0
	ldr	x19, [sp,16]
	.cfi_restore 19
.LVL130:
	ldp	x29, x30, [sp], 32
	.cfi_restore 29
	.cfi_restore 30
	.cfi_def_cfa 31, 0
	ret
	.cfi_endproc
.LFE2937:
	.size	pch_shrink_mmap_async_pages, .-pch_shrink_mmap_async_pages
	.align	2
	.global	pch_read_around
	.type	pch_read_around, %function
pch_read_around:
.LFB2941:
	.loc 1 621 0
	.cfi_startproc
.LVL131:
	stp	x29, x30, [sp, -240]!
	.cfi_def_cfa_offset 240
	.cfi_offset 29, -240
	.cfi_offset 30, -232
	mov	x4, x0
	add	x29, sp, 0
	.cfi_def_cfa_register 29
	stp	x19, x20, [sp,16]
	.cfi_offset 19, -224
	.cfi_offset 20, -216
.LBB706:
.LBB707:
	.loc 1 433 0
	adrp	x19, .LANCHOR0
.LBE707:
.LBE706:
	.loc 1 621 0
	str	x1, [x29,128]
	adrp	x1, __stack_chk_guard
.LVL132:
	str	x0, [x29,112]
.LBB716:
.LBB711:
	.loc 1 433 0
	ldr	x0, [x19,#:lo12:.LANCHOR0]
.LVL133:
.LBE711:
.LBE716:
	.loc 1 621 0
	stp	x21, x22, [sp,32]
	stp	x23, x24, [sp,48]
	stp	x25, x26, [sp,64]
	stp	x27, x28, [sp,80]
	.cfi_offset 21, -208
	.cfi_offset 22, -200
	.cfi_offset 23, -192
	.cfi_offset 24, -184
	.cfi_offset 25, -176
	.cfi_offset 26, -168
	.cfi_offset 27, -160
	.cfi_offset 28, -152
	.loc 1 621 0
	ldr	x1, [x1,#:lo12:__stack_chk_guard]
	str	x1, [x29,232]
.LBB717:
.LBB712:
	.loc 1 433 0
	ldr	w1, [x0,272]
.LBE712:
.LBE717:
	.loc 1 621 0
	str	x2, [x29,96]
	.loc 1 627 0
	ldr	w20, [x4,16]
.LBB718:
.LBB713:
	.loc 1 433 0
	cbz	w1, .L111
	.loc 1 436 0
	ldr	w21, [x0,280]
	str	x3, [x29,168]
	cmp	x21, x20
	csel	x20, x21, x20, ls
	.loc 1 441 0
	bl	pch_lowmem_check
.LVL134:
	cmp	w0, wzr
	ldr	x3, [x29,168]
.LVL135:
	ble	.L111
	.loc 1 442 0
	ldr	x0, [x19,#:lo12:.LANCHOR0]
	ldr	w0, [x0,292]
	cmp	x20, x0
	csel	x20, x20, x0, ls
.LVL136:
.L111:
.LBB708:
	.loc 1 445 0
	cmp	x20, 512
.LBE708:
.LBE713:
.LBE718:
.LBB719:
.LBB720:
	.loc 1 531 0
	ldr	x1, [x29,128]
.LVL137:
.LBE720:
.LBE719:
.LBB809:
.LBB714:
.LBB709:
	.loc 1 445 0
	mov	x0, 512
.LBE709:
.LBE714:
.LBE809:
.LBB810:
.LBB800:
	.loc 1 534 0
	add	x24, x29, 184
.LBE800:
.LBE810:
.LBB811:
.LBB715:
.LBB710:
	.loc 1 445 0
	csel	x0, x20, x0, ls
	str	x0, [x29,136]
.LBE710:
.LBE715:
.LBE811:
.LBB812:
.LBB801:
	.loc 1 531 0
	ldr	x0, [x1]
.LVL138:
	.loc 1 535 0
	add	x27, x29, 200
.LBE801:
.LBE812:
.LBB813:
	.loc 1 630 0
	ldr	x2, [x29,136]
.LVL139:
.LBE813:
.LBB814:
.LBB802:
.LBB721:
.LBB722:
	.file 11 "/mnt/disk/jenkins/ci/workspace/chipset_9.1.0_boston/opensource/component_code/vendor/huawei/extra/build/build_script/kirin_kernel_release/kernel/include/linux/pagemap.h"
	.loc 11 224 0
	ldr	w1, [x1,200]
.LVL140:
	ldr	x19, [x0,80]
.LBE722:
.LBE721:
	.loc 1 542 0
	add	x0, x29, 216
.LVL141:
.LBE802:
.LBE814:
.LBB815:
	.loc 1 630 0
	sub	x28, x3, x2, lsr 1
.LBE815:
.LBB816:
.LBB803:
	.loc 1 534 0
	str	x24, [x29,184]
.LBE803:
.LBE816:
.LBB817:
	.loc 1 630 0
	cmp	x28, xzr
.LBE817:
.LBB818:
.LBB804:
	.loc 1 534 0
	str	x24, [x29,192]
.LBE804:
.LBE818:
.LBB819:
	.loc 1 630 0
	csel	x28, x28, xzr, ge
.LBE819:
.LBB820:
.LBB805:
	.loc 1 549 0
	cmp	x2, 128
	.loc 1 542 0
	stp	xzr, xzr, [x0]
.LBE805:
.LBE820:
	.loc 1 633 0
	sub	x0, x3, x28
.LVL142:
.LBB821:
.LBB806:
	.loc 1 535 0
	str	x27, [x29,200]
.LBE806:
.LBE821:
	.loc 1 633 0
	mov	x3, x0
.LVL143:
.LBB822:
.LBB807:
.LBB725:
.LBB723:
	.loc 11 224 0
	mov	w0, 4864
.LVL144:
	orr	w0, w1, w0
.LBE723:
.LBE725:
	.loc 1 535 0
	str	x27, [x29,208]
.LBB726:
.LBB724:
	.loc 11 224 0
	str	w0, [x29,160]
.LBE724:
.LBE726:
	.loc 1 549 0
	csel	x0, x3, xzr, cc
.LVL145:
	str	x0, [x29,144]
	.loc 1 551 0
	cbz	x19, .L146
	.loc 1 565 0 discriminator 1
	ldr	x0, [x29,136]
.LVL146:
	.loc 1 558 0
	sub	x19, x19, #1
	asr	x19, x19, 12
	.loc 1 565 0 discriminator 1
	lsl	x21, x0, 1
	cbz	x21, .L146
	ldr	x0, [x29,136]
	sub	w19, w19, w28
	str	w0, [x29,108]
	mov	x25, 0
.LVL147:
	sub	w20, w0, #1
	.loc 1 574 0
	ldr	x0, [x29,128]
.LVL148:
	cmp	w19, w20
	.loc 1 565 0 discriminator 1
	str	wzr, [x29,164]
	.loc 1 574 0
	add	x0, x0, 8
.LVL149:
	csel	w20, w19, w20, le
	str	x0, [x29,152]
.LBB727:
.LBB728:
.LBB729:
.LBB730:
.LBB731:
	.file 12 "/mnt/disk/jenkins/ci/workspace/chipset_9.1.0_boston/opensource/component_code/vendor/huawei/extra/build/build_script/kirin_kernel_release/kernel/include/linux/gfp.h"
	.loc 12 437 0
	adrp	x0, contig_page_data+6144
	ldr	w19, [x29,144]
	add	x0, x0, :lo12:contig_page_data+6144
	str	x0, [x29,120]
.LVL150:
.L123:
.LBE731:
.LBE730:
.LBE729:
.LBE728:
.LBE727:
.LBB736:
.LBB737:
	.loc 1 486 0
	tbz	x25, 0, .L116
.LVL151:
	mvn	w0, w25
	.loc 1 486 0 is_stmt 0 discriminator 1
	add	w0, w0, w0, lsr 31
	asr	w0, w0, 1
.L117:
	.loc 1 491 0 is_stmt 1
	adds	w26, w0, w19
	bmi	.L118
	cmp	w26, w20
	bgt	.L118
.LBE737:
.LBE736:
.LBB739:
.LBB740:
	.file 13 "/mnt/disk/jenkins/ci/workspace/chipset_9.1.0_boston/opensource/component_code/vendor/huawei/extra/build/build_script/kirin_kernel_release/kernel/include/linux/rcupdate.h"
	.loc 13 873 0
	bl	__rcu_read_lock
.LVL152:
.LBE740:
.LBE739:
	.loc 1 571 0
	sxtw	x23, w26
	add	x22, x23, x28
	.loc 1 574 0
	ldr	x0, [x29,152]
	mov	x1, x22
	bl	radix_tree_lookup
.LVL153:
	str	x0, [x29,168]
.LBB741:
.LBB742:
	.loc 13 930 0
	bl	__rcu_read_unlock
.LVL154:
.LBE742:
.LBE741:
	.loc 1 576 0
	ldr	x0, [x29,168]
.LVL155:
	cbz	x0, .L130
	.loc 1 576 0 is_stmt 0 discriminator 1
	tbz	x0, 1, .L118
.LVL156:
.L130:
.LBB743:
.LBB735:
.LBB734:
.LBB733:
.LBB732:
	.loc 12 437 0 is_stmt 1
	ldr	w0, [x29,160]
.LVL157:
	mov	w1, 0
	ldr	x2, [x29,120]
	mov	x3, 0
	bl	__alloc_pages_nodemask
.LVL158:
	mov	x1, x0
.LBE732:
.LBE733:
.LBE734:
.LBE735:
.LBE743:
	.loc 1 580 0
	cbz	x0, .L120
	.loc 1 583 0
	ldr	x0, [x29,144]
.LVL159:
	cbz	x0, .L121
	.loc 1 584 0
	mov	x0, 1
.LVL160:
	asr	w2, w26, 6
	lsl	x4, x0, x26
	add	x0, x29, 216
.LBB744:
.LBB745:
	.loc 10 78 0
	ldr	x3, [x24]
.LBE745:
.LBE744:
	.loc 1 585 0
	add	x9, x1, 32
.LBB758:
.LBB755:
.LBB746:
.LBB747:
.LBB748:
.LBB749:
.LBB750:
	.loc 2 276 0
	str	x9, [x29,184]
.LBE750:
.LBE749:
.LBE748:
.LBE747:
.LBE746:
.LBE755:
.LBE758:
	.loc 1 584 0
	ldr	x0, [x0,w2,sxtw 3]
.LBB759:
.LBB756:
.LBB753:
.LBB751:
	.loc 10 62 0
	str	x9, [x3,8]
.LBE751:
.LBE753:
.LBE756:
.LBE759:
	.loc 1 584 0
	orr	x4, x4, x0
	add	x0, x29, 216
.LBB760:
.LBB757:
.LBB754:
.LBB752:
	.loc 10 63 0
	str	x3, [x1,32]
	.loc 10 64 0
	str	x24, [x1,40]
.LBE752:
.LBE754:
.LBE757:
.LBE760:
	.loc 1 584 0
	str	x4, [x0,w2,sxtw 3]
.L122:
	.loc 1 592 0
	ldr	w0, [x29,164]
.LVL161:
	add	w0, w0, 1
	str	w0, [x29,164]
.LVL162:
.L118:
	.loc 1 565 0 discriminator 2
	add	x25, x25, 1
	.loc 1 565 0 is_stmt 0 discriminator 1
	cmp	x25, x21
	bne	.L123
.L120:
	.loc 1 600 0 is_stmt 1
	ldr	w0, [x29,164]
.LVL163:
	cbz	w0, .L114
	.loc 1 605 0
	ldr	x0, [x29,144]
.LVL164:
	add	x8, x28, 128
	mov	x1, x28
	cbnz	x0, .L138
	b	.L127
.LVL165:
.L128:
	add	x1, x1, 1
.LBB761:
.LBB762:
	.loc 1 503 0 discriminator 1
	cmp	x1, x8
	beq	.L127
.LVL166:
.L138:
	sub	w2, w1, w28
	.loc 1 504 0
	add	x3, x29, 240
	asr	w0, w2, 6
.LVL167:
	add	x0, x3, x0, sxtw 3
	ldr	x0, [x0,-24]
	lsr	x0, x0, x2
	tbz	x0, 0, .L128
.LBB763:
	.loc 1 505 0
	ldr	x0, [x24]
.LVL168:
.LBE763:
.LBB764:
.LBB765:
	.loc 10 125 0
	mov	x2, 256
	movk	x2, 0xdead, lsl 48
.LBB766:
.LBB767:
	.loc 10 119 0
	ldr	x4, [x0]
.LVL169:
	ldr	x3, [x0,8]
.LBB768:
.LBB769:
	.loc 10 104 0
	str	x3, [x4,8]
.LBB770:
.LBB771:
.LBB772:
	.loc 2 276 0
	str	x4, [x3]
.LBE772:
.LBE771:
.LBE770:
.LBE769:
.LBE768:
.LBE767:
.LBE766:
	.loc 10 125 0
	str	x2, [x0]
.LBE765:
.LBE764:
	.loc 1 508 0
	str	x1, [x0,-16]
.LBB773:
.LBB774:
	.loc 10 78 0
	ldr	x2, [x27]
.LBB775:
.LBB776:
	.loc 10 62 0
	str	x0, [x2,8]
	.loc 10 63 0
	str	x2, [x0]
.LBB777:
.LBB778:
.LBB779:
	.loc 2 276 0
	str	x0, [x29,200]
.LBE779:
.LBE778:
.LBE777:
	.loc 10 64 0
	str	x27, [x0,8]
.LBE776:
.LBE775:
.LBE774:
.LBE773:
.LBB780:
.LBB781:
.LBB782:
.LBB783:
	.loc 2 247 0 discriminator 5
	ldr	x0, [x29,184]
.LVL170:
.LBE783:
.LBE782:
.LBE781:
.LBE780:
	.loc 1 510 0
	cmp	x24, x0
	bne	.L128
.LVL171:
.L127:
.LBE762:
.LBE761:
	.loc 1 608 0
	ldr	x0, [x29,128]
.LVL172:
	mov	x2, x27
	ldr	x1, [x29,96]
	ldr	w3, [x29,164]
	ldr	w4, [x29,160]
.LVL173:
	bl	read_pages
.LVL174:
.L114:
.LBE807:
.LBE822:
	.loc 1 636 0
	ldr	x2, [x29,112]
.LVL175:
	.loc 1 641 0
	adrp	x0, __stack_chk_guard
.LVL176:
	ldr	x1, [x29,232]
	.loc 1 637 0
	ldr	w3, [x29,108]
	.loc 1 636 0
	str	x28, [x2]
	.loc 1 637 0
	str	w3, [x2,8]
	.loc 1 641 0
	ldr	x0, [x0,#:lo12:__stack_chk_guard]
	cmp	x1, x0
	bne	.L148
	ldp	x19, x20, [sp,16]
	.cfi_remember_state
	.cfi_restore 20
	.cfi_restore 19
	ldp	x21, x22, [sp,32]
	.cfi_restore 22
	.cfi_restore 21
.LVL177:
	ldp	x23, x24, [sp,48]
	.cfi_restore 24
	.cfi_restore 23
	ldp	x25, x26, [sp,64]
	.cfi_restore 26
	.cfi_restore 25
.LVL178:
	ldp	x27, x28, [sp,80]
	.cfi_restore 28
	.cfi_restore 27
	ldp	x29, x30, [sp], 240
	.cfi_restore 30
	.cfi_restore 29
	.cfi_def_cfa 31, 0
	ret
.LVL179:
.L116:
	.cfi_restore_state
	add	w0, w25, 1
.LBB823:
.LBB808:
.LBB784:
.LBB738:
	.loc 1 486 0 discriminator 2
	asr	w0, w0, 1
	b	.L117
.LVL180:
.L121:
.LBE738:
.LBE784:
.LBB785:
.LBB786:
	.loc 10 78 0
	ldr	x2, [x27]
.LBE786:
.LBE785:
	.loc 1 588 0
	add	x0, x1, 32
.LVL181:
	.loc 1 587 0
	str	x22, [x1,16]
	.loc 1 589 0
	ldr	x3, [x29,136]
.LBB796:
.LBB794:
.LBB787:
.LBB788:
	.loc 10 62 0
	str	x0, [x2,8]
.LBE788:
.LBE787:
.LBE794:
.LBE796:
	.loc 1 589 0
	cmp	x3, x23
.LBB797:
.LBB795:
.LBB793:
.LBB792:
.LBB789:
.LBB790:
.LBB791:
	.loc 2 276 0
	str	x0, [x29,200]
.LBE791:
.LBE790:
.LBE789:
	.loc 10 63 0
	str	x2, [x1,32]
	.loc 10 64 0
	str	x27, [x1,40]
.LBE792:
.LBE793:
.LBE795:
.LBE797:
	.loc 1 589 0
	bne	.L122
.LBB798:
.LBB799:
	.file 14 "/mnt/disk/jenkins/ci/workspace/chipset_9.1.0_boston/opensource/component_code/vendor/huawei/extra/build/build_script/kirin_kernel_release/kernel/include/linux/page-flags.h"
	.loc 14 318 0
	mov	w0, 18
	bl	set_bit
.LVL182:
	b	.L122
.LVL183:
.L146:
	ldr	w0, [x29,136]
.LVL184:
	str	w0, [x29,108]
	b	.L114
.LVL185:
.L148:
.LBE799:
.LBE798:
.LBE808:
.LBE823:
	.loc 1 641 0
	bl	__stack_chk_fail
.LVL186:
	.cfi_endproc
.LFE2941:
	.size	pch_read_around, .-pch_read_around
	.align	2
	.global	pch_mmap_readextend
	.type	pch_mmap_readextend, %function
pch_mmap_readextend:
.LFB2943:
	.loc 1 756 0
	.cfi_startproc
.LVL187:
	stp	x29, x30, [sp, -64]!
	.cfi_def_cfa_offset 64
	.cfi_offset 29, -64
	.cfi_offset 30, -56
	add	x29, sp, 0
	.cfi_def_cfa_register 29
	stp	x19, x20, [sp,16]
	.cfi_offset 19, -48
	.cfi_offset 20, -40
	.loc 1 758 0
	adrp	x19, .LANCHOR0
	.loc 1 756 0
	stp	x21, x22, [sp,32]
	stp	x23, x24, [sp,48]
	.cfi_offset 21, -32
	.cfi_offset 22, -24
	.cfi_offset 23, -16
	.cfi_offset 24, -8
	.loc 1 758 0
	ldr	x4, [x19,#:lo12:.LANCHOR0]
	ldr	w4, [x4,272]
	cbnz	w4, .L161
.LVL188:
.L149:
	.loc 1 771 0
	ldp	x19, x20, [sp,16]
	.cfi_remember_state
	.cfi_restore 20
	.cfi_restore 19
	ldp	x21, x22, [sp,32]
	.cfi_restore 22
	.cfi_restore 21
.LVL189:
	ldp	x23, x24, [sp,48]
	.cfi_restore 24
	.cfi_restore 23
.LVL190:
	ldp	x29, x30, [sp], 64
	.cfi_restore 30
	.cfi_restore 29
	.cfi_def_cfa 31, 0
	ret
.LVL191:
.L161:
	.cfi_restore_state
	mov	x23, x3
	mov	x22, x2
	mov	x21, x1
	mov	x20, x0
	.loc 1 764 0
	bl	pch_lowmem_check
.LVL192:
	cbnz	w0, .L149
.LBB837:
.LBB838:
	.loc 1 649 0
	ldr	x24, [x22,312]
.LVL193:
	ldr	x2, [x20,80]
	.loc 1 650 0
	ldr	x0, [x24]
.LVL194:
	ldr	x20, [x0,80]
.LVL195:
	.loc 1 662 0
	tbnz	x2, 16, .L149
	.loc 1 664 0
	ldr	w1, [x21,16]
	cbz	w1, .L149
	.loc 1 666 0
	tbnz	x2, 15, .L149
	.loc 1 673 0
	ldr	w1, [x21,20]
	cmp	w1, 100
	bhi	.L149
.LBB839:
.LBB840:
.LBB841:
.LBB842:
	.file 15 "/mnt/disk/jenkins/ci/workspace/chipset_9.1.0_boston/opensource/component_code/vendor/huawei/extra/build/build_script/kirin_kernel_release/kernel/include/linux/backing-dev.h"
	.loc 15 188 0
	cbz	x0, .L157
	.loc 15 193 0
	adrp	x2, blockdev_superblock
	.loc 15 191 0
	ldr	x1, [x0,40]
.LVL196:
	.loc 15 193 0
	ldr	x2, [x2,#:lo12:blockdev_superblock]
	cmp	x1, x2
	beq	.L162
	.loc 15 196 0
	ldr	x1, [x1,248]
.LVL197:
.L153:
	ldr	x0, [x1,80]
.LVL198:
.LBE842:
.LBE841:
.LBB844:
.LBB845:
	.loc 15 203 0
	ldr	x2, [x0,32]
	cbz	x2, .L155
	.loc 15 204 0
	ldr	x0, [x0,40]
.LVL199:
	mov	w1, 2
	blr	x2
.LVL200:
.L156:
.LBE845:
.LBE844:
.LBE840:
.LBE839:
	.loc 1 679 0
	cbnz	w0, .L149
.LBB850:
	.loc 1 727 0
	ldr	w2, [x21,8]
.LBE850:
	.loc 1 658 0
	sub	x20, x20, #1
	asr	x20, x20, 12
.LBB851:
	.loc 1 727 0
	ubfx	x2, x2, 1, 31
	add	x2, x2, x23
	cmp	x2, x20
	csel	x0, x2, x20, le
.LBE851:
	.loc 1 728 0
	cmp	x20, x0
	beq	.L149
	.loc 1 737 0
	ldr	x3, [x19,#:lo12:.LANCHOR0]
	.loc 1 736 0
	mov	x0, x24
	mov	x1, x22
	mov	x4, 0
	ldr	w3, [x3,280]
	bl	__do_page_cache_readahead
.LVL201:
	b	.L149
.LVL202:
.L155:
.LBB852:
.LBB849:
.LBB847:
.LBB846:
	.loc 15 205 0
	ldr	x0, [x1,424]
.LVL203:
	ldr	x0, [x0]
	and	w0, w0, 2
	b	.L156
.LVL204:
.L157:
.LBE846:
.LBE847:
.LBB848:
.LBB843:
	.loc 15 189 0
	adrp	x1, noop_backing_dev_info
	add	x1, x1, :lo12:noop_backing_dev_info
	b	.L153
.LVL205:
.L162:
	.loc 15 194 0
	bl	I_BDEV
.LVL206:
	ldr	x1, [x0,184]
	b	.L153
.LBE843:
.LBE848:
.LBE849:
.LBE852:
.LBE838:
.LBE837:
	.cfi_endproc
.LFE2943:
	.size	pch_mmap_readextend, .-pch_mmap_readextend
	.align	2
	.global	mount_fs_register_pch
	.type	mount_fs_register_pch, %function
mount_fs_register_pch:
.LFB2949:
	.loc 1 932 0
	.cfi_startproc
.LVL207:
	stp	x29, x30, [sp, -32]!
	.cfi_def_cfa_offset 32
	.cfi_offset 29, -32
	.cfi_offset 30, -24
	add	x29, sp, 0
	.cfi_def_cfa_register 29
	str	x19, [sp,16]
	.cfi_offset 19, -16
	.loc 1 933 0
	ldr	x1, [x0,8]
.LVL208:
	.loc 1 936 0
	mov	x0, 8208
.LVL209:
	movk	x0, 0xf2f5, lsl 16
	ldr	x2, [x1,96]
	cmp	x2, x0
	beq	.L176
	.loc 1 945 0
	adrp	x0, .LANCHOR0+8
	ldr	w0, [x0,#:lo12:.LANCHOR0+8]
	cmp	w0, 1
	bhi	.L177
.L163:
	.loc 1 967 0
	ldr	x19, [sp,16]
	.cfi_remember_state
	.cfi_restore 19
	ldp	x29, x30, [sp], 32
	.cfi_restore 30
	.cfi_restore 29
	.cfi_def_cfa 31, 0
	ret
.L176:
	.cfi_restore_state
.LBB853:
.LBB854:
	.loc 1 132 0
	adrp	x19, .LANCHOR0
	add	x3, x19, :lo12:.LANCHOR0
	ldr	x2, [x19,#:lo12:.LANCHOR0]
	ldr	w0, [x2,300]
.LBE854:
.LBE853:
	.loc 1 937 0
	tbz	x0, 2, .L165
.LBB855:
.LBB856:
	.loc 1 147 0
	and	w0, w0, -5
.LBE856:
.LBE855:
	.loc 1 950 0
	ldr	x3, [x2,128]
.LBB857:
.LBB858:
	.loc 1 157 0
	orr	w0, w0, 1
	str	w0, [x2,300]
.LBE858:
.LBE857:
	.loc 1 950 0
	cbnz	x3, .L163
	.loc 1 953 0
	ldr	x1, [x1,240]
.LVL210:
	cbz	x1, .L163
	.loc 1 958 0
	adrp	x0, .LC14
	.loc 1 956 0
	str	x1, [x2,128]
	.loc 1 958 0
	add	x0, x0, :lo12:.LC14
	str	x0, [x2]
	.loc 1 957 0
	adrp	x0, pch_io_idle_notify_handler
	.loc 1 959 0
	ldr	x3, [x19,#:lo12:.LANCHOR0]
	.loc 1 957 0
	add	x0, x0, :lo12:pch_io_idle_notify_handler
	str	x0, [x2,88]
	.loc 1 959 0
	mov	x1, x3
	ldr	x0, [x3,128]
	bl	blk_busy_idle_event_subscriber
.LVL211:
	.loc 1 960 0
	cbz	w0, .L163
	.loc 1 961 0 discriminator 1
	adrp	x1, .LANCHOR1
	adrp	x0, .LC15
	add	x1, x1, :lo12:.LANCHOR1
	add	x0, x0, :lo12:.LC15
	add	x1, x1, 392
	bl	printk
.LVL212:
	.loc 1 962 0
	ldr	x0, [x19,#:lo12:.LANCHOR0]
	.loc 1 963 0
	str	xzr, [x0]
	.loc 1 962 0
	str	xzr, [x0,88]
	.loc 1 964 0
	ldr	x0, [x19,#:lo12:.LANCHOR0]
	str	xzr, [x0,128]
	b	.L163
.LVL213:
.L165:
	.loc 1 941 0
	ldr	w0, [x3,8]
	cmp	w0, 1
	bls	.L163
	.loc 1 941 0 is_stmt 0 discriminator 1
	adrp	x1, .LANCHOR1
.LVL214:
	adrp	x0, .LC12
	add	x1, x1, :lo12:.LANCHOR1
	add	x0, x0, :lo12:.LC12
	add	x1, x1, 392
	bl	printk
.LVL215:
	b	.L163
.LVL216:
.L177:
	.loc 1 945 0 is_stmt 1 discriminator 1
	adrp	x1, .LANCHOR1
.LVL217:
	adrp	x0, .LC13
	add	x1, x1, :lo12:.LANCHOR1
	add	x0, x0, :lo12:.LC13
	add	x1, x1, 392
	bl	printk
.LVL218:
	b	.L163
	.cfi_endproc
.LFE2949:
	.size	mount_fs_register_pch, .-mount_fs_register_pch
	.align	2
	.global	umounting_fs_register_pch
	.type	umounting_fs_register_pch, %function
umounting_fs_register_pch:
.LFB2950:
	.loc 1 979 0
	.cfi_startproc
.LVL219:
	stp	x29, x30, [sp, -32]!
	.cfi_def_cfa_offset 32
	.cfi_offset 29, -32
	.cfi_offset 30, -24
	.loc 1 982 0
	mov	x1, 8208
	.loc 1 979 0
	add	x29, sp, 0
	.cfi_def_cfa_register 29
	str	x19, [sp,16]
	.cfi_offset 19, -16
	.loc 1 982 0
	movk	x1, 0xf2f5, lsl 16
	ldr	x0, [x0,96]
.LVL220:
	cmp	x0, x1
	beq	.L185
	.loc 1 1007 0
	adrp	x0, .LANCHOR0+8
	ldr	w0, [x0,#:lo12:.LANCHOR0+8]
	cmp	w0, 1
	bhi	.L186
.L178:
	.loc 1 1010 0
	ldr	x19, [sp,16]
	.cfi_remember_state
	.cfi_restore 19
	ldp	x29, x30, [sp], 32
	.cfi_restore 30
	.cfi_restore 29
	.cfi_def_cfa 31, 0
	ret
.L185:
	.cfi_restore_state
.LBB859:
.LBB860:
	.loc 1 127 0
	adrp	x19, .LANCHOR0
	add	x2, x19, :lo12:.LANCHOR0
	ldr	x0, [x19,#:lo12:.LANCHOR0]
	ldr	w1, [x0,300]
.LBE860:
.LBE859:
	.loc 1 983 0
	tbz	x1, 0, .L180
.LBB861:
.LBB862:
	.loc 1 142 0
	and	w1, w1, -2
.LBE862:
.LBE861:
	.loc 1 987 0
	ldr	x2, [x0,128]
.LBB863:
.LBB864:
	.loc 1 167 0
	orr	w1, w1, 2
	str	w1, [x0,300]
.LBE864:
.LBE863:
	.loc 1 987 0
	cbz	x2, .L178
	.loc 1 988 0
	add	x0, x0, 136
	bl	del_timer_sync
.LVL221:
	.loc 1 989 0
	ldr	x0, [x19,#:lo12:.LANCHOR0]
	add	x0, x0, 184
	bl	flush_work
.LVL222:
	.loc 1 990 0
	ldr	x0, [x19,#:lo12:.LANCHOR0]
	add	x0, x0, 216
	bl	down
.LVL223:
	.loc 1 991 0
	ldr	x0, [x19,#:lo12:.LANCHOR0]
	mov	x1, x0
	ldr	x0, [x0,128]
	bl	blk_busy_idle_event_unsubscriber
.LVL224:
	.loc 1 992 0
	cbnz	w0, .L187
	.loc 1 997 0
	ldr	x0, [x19,#:lo12:.LANCHOR0]
	.loc 1 998 0
	str	xzr, [x0]
	.loc 1 997 0
	str	xzr, [x0,88]
	.loc 1 999 0
	ldr	x1, [x19,#:lo12:.LANCHOR0]
	.loc 1 1000 0
	add	x0, x1, 216
	.loc 1 999 0
	str	xzr, [x1,128]
	.loc 1 1000 0
	bl	up
.LVL225:
	.loc 1 1010 0
	ldr	x19, [sp,16]
	.cfi_remember_state
	.cfi_restore 19
	ldp	x29, x30, [sp], 32
	.cfi_restore 29
	.cfi_restore 30
	.cfi_def_cfa 31, 0
	ret
.L180:
	.cfi_restore_state
	.loc 1 1003 0
	ldr	w0, [x2,8]
	cmp	w0, 1
	bls	.L178
	.loc 1 1003 0 is_stmt 0 discriminator 1
	adrp	x1, .LANCHOR1
	adrp	x0, .LC17
	add	x1, x1, :lo12:.LANCHOR1
	add	x0, x0, :lo12:.LC17
	add	x1, x1, 416
	bl	printk
.LVL226:
	b	.L178
.L186:
	.loc 1 1007 0 is_stmt 1 discriminator 1
	adrp	x1, .LANCHOR1
	adrp	x0, .LC13
	add	x1, x1, :lo12:.LANCHOR1
	add	x0, x0, :lo12:.LC13
	add	x1, x1, 416
	bl	printk
.LVL227:
	b	.L178
.L187:
	.loc 1 993 0 discriminator 1
	adrp	x1, .LANCHOR1
	adrp	x0, .LC16
	add	x1, x1, :lo12:.LANCHOR1
	add	x0, x0, :lo12:.LC16
	add	x1, x1, 416
	bl	printk
.LVL228:
	.loc 1 994 0
	ldr	x0, [x19,#:lo12:.LANCHOR0]
	add	x0, x0, 216
	bl	up
.LVL229:
	.loc 1 995 0
	b	.L178
	.cfi_endproc
.LFE2950:
	.size	umounting_fs_register_pch, .-umounting_fs_register_pch
	.align	2
	.global	umounted_fs_register_pch
	.type	umounted_fs_register_pch, %function
umounted_fs_register_pch:
.LFB2951:
	.loc 1 1021 0
	.cfi_startproc
.LVL230:
	stp	x29, x30, [sp, -16]!
	.cfi_def_cfa_offset 16
	.cfi_offset 29, -16
	.cfi_offset 30, -8
	.loc 1 1022 0
	mov	x1, 8208
	.loc 1 1021 0
	add	x29, sp, 0
	.cfi_def_cfa_register 29
	.loc 1 1022 0
	ldr	x0, [x0,96]
.LVL231:
	movk	x1, 0xf2f5, lsl 16
	cmp	x0, x1
	beq	.L192
	.loc 1 1031 0
	adrp	x0, .LANCHOR0+8
	ldr	w0, [x0,#:lo12:.LANCHOR0+8]
	cmp	w0, 1
	bhi	.L193
.L188:
	.loc 1 1035 0
	ldp	x29, x30, [sp], 16
	.cfi_remember_state
	.cfi_restore 30
	.cfi_restore 29
	.cfi_def_cfa 31, 0
	ret
.L192:
	.cfi_restore_state
.LBB865:
.LBB866:
	.loc 1 137 0
	adrp	x0, .LANCHOR0
	add	x2, x0, :lo12:.LANCHOR0
	ldr	x1, [x0,#:lo12:.LANCHOR0]
	ldr	w0, [x1,300]
.LBE866:
.LBE865:
	.loc 1 1023 0
	tbnz	x0, 1, .L194
	.loc 1 1027 0
	ldr	w0, [x2,8]
	cmp	w0, 1
	bls	.L188
	.loc 1 1027 0 is_stmt 0 discriminator 1
	adrp	x1, .LANCHOR1
	adrp	x0, .LC12
	add	x1, x1, :lo12:.LANCHOR1
	add	x0, x0, :lo12:.LC12
	add	x1, x1, 448
	bl	printk
.LVL232:
	b	.L188
.L194:
.LBB867:
.LBB868:
	.loc 1 152 0 is_stmt 1
	and	w0, w0, -3
.LBE868:
.LBE867:
.LBB869:
.LBB870:
	.loc 1 162 0
	orr	w0, w0, 4
	str	w0, [x1,300]
.LBE870:
.LBE869:
	.loc 1 1035 0
	ldp	x29, x30, [sp], 16
	.cfi_remember_state
	.cfi_restore 29
	.cfi_restore 30
	.cfi_def_cfa 31, 0
	ret
.L193:
	.cfi_restore_state
	.loc 1 1031 0 discriminator 1
	adrp	x1, .LANCHOR1
	adrp	x0, .LC13
	add	x1, x1, :lo12:.LANCHOR1
	add	x0, x0, :lo12:.LC13
	add	x1, x1, 448
	bl	printk
.LVL233:
	b	.L188
	.cfi_endproc
.LFE2951:
	.size	umounted_fs_register_pch, .-umounted_fs_register_pch
	.global	pch_info
	.global	g_pch_print_level
	.section	.rodata
	.align	3
.LANCHOR1 = . + 0
	.type	__func__.35313, %object
	.size	__func__.35313, 17
__func__.35313:
	.string	"pch_timeout_work"
	.zero	7
	.type	__func__.35352, %object
	.size	__func__.35352, 29
__func__.35352:
	.string	"pch_emui_bootstat_proc_write"
	.zero	3
	.type	__func__.35363, %object
	.size	__func__.35363, 28
__func__.35363:
	.string	"hisi_page_cache_manage_init"
	.zero	4
	.type	__func__.35357, %object
	.size	__func__.35357, 25
__func__.35357:
	.string	"pch_emui_boot_check_init"
	.zero	7
	.type	pch_emui_boot_done_fops, %object
	.size	pch_emui_boot_done_fops, 240
pch_emui_boot_done_fops:
	.zero	8
	.xword	seq_lseek
	.xword	seq_read
	.xword	pch_emui_bootstat_proc_write
	.zero	64
	.xword	pch_emui_bootstat_proc_open
	.zero	8
	.xword	single_release
	.zero	120
	.type	__func__.35369, %object
	.size	__func__.35369, 28
__func__.35369:
	.string	"hisi_page_cache_manage_exit"
	.zero	4
	.type	__func__.35326, %object
	.size	__func__.35326, 22
__func__.35326:
	.string	"mount_fs_register_pch"
	.zero	2
	.type	__func__.35331, %object
	.size	__func__.35331, 26
__func__.35331:
	.string	"umounting_fs_register_pch"
	.zero	6
	.type	__func__.35335, %object
	.size	__func__.35335, 25
__func__.35335:
	.string	"umounted_fs_register_pch"
	.section	.exitcall.exit,"aw",%progbits
	.align	3
	.type	__exitcall_hisi_page_cache_manage_exit, %object
	.size	__exitcall_hisi_page_cache_manage_exit, 8
__exitcall_hisi_page_cache_manage_exit:
	.xword	hisi_page_cache_manage_exit
	.section	.initcall6.init,"aw",%progbits
	.align	3
	.type	__initcall_hisi_page_cache_manage_init6, %object
	.size	__initcall_hisi_page_cache_manage_init6, 8
__initcall_hisi_page_cache_manage_init6:
	.xword	hisi_page_cache_manage_init
	.data
	.align	2
.LANCHOR2 = . + 0
	.type	page_cache_func_enable, %object
	.size	page_cache_func_enable, 4
page_cache_func_enable:
	.word	1
	.section	.rodata.str1.8,"aMS",%progbits,1
	.align	3
.LC0:
	.string	"/data"
	.zero	2
.LC1:
	.string	"\0013%s: err userdata_state = %d.\n"
.LC2:
	.string	"%d\n"
	.zero	4
.LC3:
	.string	"\0013%s: input error.\n"
	.zero	4
.LC4:
	.string	"\0013%s: module init ++.\n"
	.zero	1
.LC5:
	.string	"\0013%s: device not supported.\n"
	.zero	3
.LC6:
	.string	"pch_status"
	.zero	5
.LC7:
	.string	"\0013%s: proc mk error.\n"
	.zero	2
.LC8:
	.string	"pch_status/pch_enabled"
	.zero	1
.LC9:
	.string	"\0013%s: module init --.\n"
	.zero	1
.LC10:
	.string	"\0013%s: module exit ++.\n"
	.zero	1
.LC11:
	.string	"\0013%s: module exit --.\n"
	.zero	1
.LC12:
	.string	"\0013%s: data remount, return.\n"
	.zero	3
.LC13:
	.string	"\0013%s: other partitions, return.\n"
	.zero	7
.LC14:
	.string	"pagecache_helper"
	.zero	7
.LC15:
	.string	"\0013%s: blk busy/idle init failed.\n"
	.zero	6
.LC16:
	.string	"\0013%s: blk busy/idle clear failed.\n"
	.zero	5
.LC17:
	.string	"\0013%s: data re-umount, return.\n"
	.bss
	.align	3
.LANCHOR0 = . + 0
	.type	pch_info, %object
	.size	pch_info, 8
pch_info:
	.zero	8
	.type	g_pch_print_level, %object
	.size	g_pch_print_level, 4
g_pch_print_level:
	.zero	4
	.text
.Letext0:
	.file 16 "/mnt/disk/jenkins/ci/workspace/chipset_9.1.0_boston/opensource/component_code/vendor/huawei/extra/build/build_script/kirin_kernel_release/kernel/include/uapi/asm-generic/int-ll64.h"
	.file 17 "/mnt/disk/jenkins/ci/workspace/chipset_9.1.0_boston/opensource/component_code/vendor/huawei/extra/build/build_script/kirin_kernel_release/kernel/include/asm-generic/int-ll64.h"
	.file 18 "/mnt/disk/jenkins/ci/workspace/chipset_9.1.0_boston/opensource/component_code/vendor/huawei/extra/build/build_script/kirin_kernel_release/kernel/include/uapi/asm-generic/posix_types.h"
	.file 19 "/mnt/disk/jenkins/ci/workspace/chipset_9.1.0_boston/opensource/component_code/vendor/huawei/extra/build/build_script/kirin_kernel_release/kernel/include/linux/types.h"
	.file 20 "/mnt/disk/jenkins/ci/workspace/chipset_9.1.0_boston/opensource/component_code/vendor/huawei/extra/build/build_script/kirin_kernel_release/kernel/include/linux/export.h"
	.file 21 "/mnt/disk/jenkins/ci/workspace/chipset_9.1.0_boston/opensource/component_code/vendor/huawei/extra/build/build_script/kirin_kernel_release/kernel/include/linux/init.h"
	.file 22 "/mnt/disk/jenkins/ci/workspace/chipset_9.1.0_boston/opensource/component_code/vendor/huawei/extra/build/build_script/kirin_kernel_release/kernel/include/linux/capability.h"
	.file 23 "/mnt/disk/jenkins/ci/workspace/chipset_9.1.0_boston/opensource/component_code/vendor/huawei/extra/build/build_script/kirin_kernel_release/kernel/include/asm-generic/bug.h"
	.file 24 "/mnt/disk/jenkins/ci/workspace/chipset_9.1.0_boston/opensource/component_code/vendor/huawei/extra/build/build_script/kirin_kernel_release/kernel/include/linux/restart_block.h"
	.file 25 "/mnt/disk/jenkins/ci/workspace/chipset_9.1.0_boston/opensource/component_code/vendor/huawei/extra/build/build_script/kirin_kernel_release/kernel/include/uapi/linux/time.h"
	.file 26 "/mnt/disk/jenkins/ci/workspace/chipset_9.1.0_boston/opensource/component_code/vendor/huawei/extra/build/build_script/kirin_kernel_release/kernel/arch/arm64/include/asm/compat.h"
	.file 27 "/mnt/disk/jenkins/ci/workspace/chipset_9.1.0_boston/opensource/component_code/vendor/huawei/extra/build/build_script/kirin_kernel_release/kernel/arch/arm64/include/asm/thread_info.h"
	.file 28 "/mnt/disk/jenkins/ci/workspace/chipset_9.1.0_boston/opensource/component_code/vendor/huawei/extra/build/build_script/kirin_kernel_release/kernel/arch/arm64/include/uapi/asm/ptrace.h"
	.file 29 "/mnt/disk/jenkins/ci/workspace/chipset_9.1.0_boston/opensource/component_code/vendor/huawei/extra/build/build_script/kirin_kernel_release/kernel/arch/arm64/include/asm/spinlock_types.h"
	.file 30 "/mnt/disk/jenkins/ci/workspace/chipset_9.1.0_boston/opensource/component_code/vendor/huawei/extra/build/build_script/kirin_kernel_release/kernel/include/linux/spinlock_types.h"
	.file 31 "/mnt/disk/jenkins/ci/workspace/chipset_9.1.0_boston/opensource/component_code/vendor/huawei/extra/build/build_script/kirin_kernel_release/kernel/include/linux/rwlock_types.h"
	.file 32 "/mnt/disk/jenkins/ci/workspace/chipset_9.1.0_boston/opensource/component_code/vendor/huawei/extra/build/build_script/kirin_kernel_release/kernel/arch/arm64/include/asm/fpsimd.h"
	.file 33 "/mnt/disk/jenkins/ci/workspace/chipset_9.1.0_boston/opensource/component_code/vendor/huawei/extra/build/build_script/kirin_kernel_release/kernel/include/linux/jump_label.h"
	.file 34 "/mnt/disk/jenkins/ci/workspace/chipset_9.1.0_boston/opensource/component_code/vendor/huawei/extra/build/build_script/kirin_kernel_release/kernel/include/asm-generic/atomic-long.h"
	.file 35 "/mnt/disk/jenkins/ci/workspace/chipset_9.1.0_boston/opensource/component_code/vendor/huawei/extra/build/build_script/kirin_kernel_release/kernel/arch/arm64/include/asm/processor.h"
	.file 36 "/mnt/disk/jenkins/ci/workspace/chipset_9.1.0_boston/opensource/component_code/vendor/huawei/extra/build/build_script/kirin_kernel_release/kernel/include/linux/seqlock.h"
	.file 37 "/mnt/disk/jenkins/ci/workspace/chipset_9.1.0_boston/opensource/component_code/vendor/huawei/extra/build/build_script/kirin_kernel_release/kernel/include/linux/time64.h"
	.file 38 "/mnt/disk/jenkins/ci/workspace/chipset_9.1.0_boston/opensource/component_code/vendor/huawei/extra/build/build_script/kirin_kernel_release/kernel/include/linux/plist.h"
	.file 39 "/mnt/disk/jenkins/ci/workspace/chipset_9.1.0_boston/opensource/component_code/vendor/huawei/extra/build/build_script/kirin_kernel_release/kernel/include/linux/cpumask.h"
	.file 40 "/mnt/disk/jenkins/ci/workspace/chipset_9.1.0_boston/opensource/component_code/vendor/huawei/extra/build/build_script/kirin_kernel_release/kernel/include/linux/wait.h"
	.file 41 "/mnt/disk/jenkins/ci/workspace/chipset_9.1.0_boston/opensource/component_code/vendor/huawei/extra/build/build_script/kirin_kernel_release/kernel/include/linux/completion.h"
	.file 42 "/mnt/disk/jenkins/ci/workspace/chipset_9.1.0_boston/opensource/component_code/vendor/huawei/extra/build/build_script/kirin_kernel_release/kernel/include/linux/ktime.h"
	.file 43 "/mnt/disk/jenkins/ci/workspace/chipset_9.1.0_boston/opensource/component_code/vendor/huawei/extra/build/build_script/kirin_kernel_release/kernel/include/linux/rbtree.h"
	.file 44 "/mnt/disk/jenkins/ci/workspace/chipset_9.1.0_boston/opensource/component_code/vendor/huawei/extra/build/build_script/kirin_kernel_release/kernel/include/linux/nodemask.h"
	.file 45 "/mnt/disk/jenkins/ci/workspace/chipset_9.1.0_boston/opensource/component_code/vendor/huawei/extra/build/build_script/kirin_kernel_release/kernel/include/linux/osq_lock.h"
	.file 46 "/mnt/disk/jenkins/ci/workspace/chipset_9.1.0_boston/opensource/component_code/vendor/huawei/extra/build/build_script/kirin_kernel_release/kernel/include/linux/rwsem.h"
	.file 47 "/mnt/disk/jenkins/ci/workspace/chipset_9.1.0_boston/opensource/component_code/vendor/huawei/extra/build/build_script/kirin_kernel_release/kernel/include/linux/sched.h"
	.file 48 "/mnt/disk/jenkins/ci/workspace/chipset_9.1.0_boston/opensource/component_code/vendor/huawei/extra/build/build_script/kirin_kernel_release/kernel/include/linux/mm_types.h"
	.file 49 "/mnt/disk/jenkins/ci/workspace/chipset_9.1.0_boston/opensource/component_code/vendor/huawei/extra/build/build_script/kirin_kernel_release/kernel/include/linux/lockdep.h"
	.file 50 "/mnt/disk/jenkins/ci/workspace/chipset_9.1.0_boston/opensource/component_code/vendor/huawei/extra/build/build_script/kirin_kernel_release/kernel/include/linux/uprobes.h"
	.file 51 "/mnt/disk/jenkins/ci/workspace/chipset_9.1.0_boston/opensource/component_code/vendor/huawei/extra/build/build_script/kirin_kernel_release/kernel/include/linux/timer.h"
	.file 52 "/mnt/disk/jenkins/ci/workspace/chipset_9.1.0_boston/opensource/component_code/vendor/huawei/extra/build/build_script/kirin_kernel_release/kernel/include/linux/uidgid.h"
	.file 53 "/mnt/disk/jenkins/ci/workspace/chipset_9.1.0_boston/opensource/component_code/vendor/huawei/extra/build/build_script/kirin_kernel_release/kernel/include/linux/sysctl.h"
	.file 54 "/mnt/disk/jenkins/ci/workspace/chipset_9.1.0_boston/opensource/component_code/vendor/huawei/extra/build/build_script/kirin_kernel_release/kernel/include/linux/stddef.h"
	.file 55 "/mnt/disk/jenkins/ci/workspace/chipset_9.1.0_boston/opensource/component_code/vendor/huawei/extra/build/build_script/kirin_kernel_release/kernel/arch/arm64/include/asm/pgtable-types.h"
	.file 56 "/mnt/disk/jenkins/ci/workspace/chipset_9.1.0_boston/opensource/component_code/vendor/huawei/extra/build/build_script/kirin_kernel_release/kernel/arch/arm64/include/asm/page.h"
	.file 57 "/mnt/disk/jenkins/ci/workspace/chipset_9.1.0_boston/opensource/component_code/vendor/huawei/extra/build/build_script/kirin_kernel_release/kernel/include/linux/pfn.h"
	.file 58 "/mnt/disk/jenkins/ci/workspace/chipset_9.1.0_boston/opensource/component_code/vendor/huawei/extra/build/build_script/kirin_kernel_release/kernel/include/linux/llist.h"
	.file 59 "/mnt/disk/jenkins/ci/workspace/chipset_9.1.0_boston/opensource/component_code/vendor/huawei/extra/build/build_script/kirin_kernel_release/kernel/include/linux/smp.h"
	.file 60 "/mnt/disk/jenkins/ci/workspace/chipset_9.1.0_boston/opensource/component_code/vendor/huawei/extra/build/build_script/kirin_kernel_release/kernel/arch/arm64/include/asm/smp.h"
	.file 61 "/mnt/disk/jenkins/ci/workspace/chipset_9.1.0_boston/opensource/component_code/vendor/huawei/extra/build/build_script/kirin_kernel_release/kernel/arch/arm64/include/asm/mmu.h"
	.file 62 "/mnt/disk/jenkins/ci/workspace/chipset_9.1.0_boston/opensource/component_code/vendor/huawei/extra/build/build_script/kirin_kernel_release/kernel/include/linux/fs.h"
	.file 63 "/mnt/disk/jenkins/ci/workspace/chipset_9.1.0_boston/opensource/component_code/vendor/huawei/extra/build/build_script/kirin_kernel_release/kernel/include/linux/mm.h"
	.file 64 "/mnt/disk/jenkins/ci/workspace/chipset_9.1.0_boston/opensource/component_code/vendor/huawei/extra/build/build_script/kirin_kernel_release/kernel/include/linux/blk-cgroup.h"
	.file 65 "/mnt/disk/jenkins/ci/workspace/chipset_9.1.0_boston/opensource/component_code/vendor/huawei/extra/build/build_script/kirin_kernel_release/kernel/include/linux/user_namespace.h"
	.file 66 "/mnt/disk/jenkins/ci/workspace/chipset_9.1.0_boston/opensource/component_code/vendor/huawei/extra/build/build_script/kirin_kernel_release/kernel/include/asm-generic/cputime_jiffies.h"
	.file 67 "/mnt/disk/jenkins/ci/workspace/chipset_9.1.0_boston/opensource/component_code/vendor/huawei/extra/build/build_script/kirin_kernel_release/kernel/include/uapi/asm-generic/signal.h"
	.file 68 "/mnt/disk/jenkins/ci/workspace/chipset_9.1.0_boston/opensource/component_code/vendor/huawei/extra/build/build_script/kirin_kernel_release/kernel/include/uapi/asm-generic/signal-defs.h"
	.file 69 "/mnt/disk/jenkins/ci/workspace/chipset_9.1.0_boston/opensource/component_code/vendor/huawei/extra/build/build_script/kirin_kernel_release/kernel/include/uapi/asm-generic/siginfo.h"
	.file 70 "/mnt/disk/jenkins/ci/workspace/chipset_9.1.0_boston/opensource/component_code/vendor/huawei/extra/build/build_script/kirin_kernel_release/kernel/include/linux/signal.h"
	.file 71 "/mnt/disk/jenkins/ci/workspace/chipset_9.1.0_boston/opensource/component_code/vendor/huawei/extra/build/build_script/kirin_kernel_release/kernel/include/linux/pid.h"
	.file 72 "/mnt/disk/jenkins/ci/workspace/chipset_9.1.0_boston/opensource/component_code/vendor/huawei/extra/build/build_script/kirin_kernel_release/kernel/include/linux/mmzone.h"
	.file 73 "/mnt/disk/jenkins/ci/workspace/chipset_9.1.0_boston/opensource/component_code/vendor/huawei/extra/build/build_script/kirin_kernel_release/kernel/include/linux/page_ext.h"
	.file 74 "/mnt/disk/jenkins/ci/workspace/chipset_9.1.0_boston/opensource/component_code/vendor/huawei/extra/build/build_script/kirin_kernel_release/kernel/include/linux/mutex.h"
	.file 75 "/mnt/disk/jenkins/ci/workspace/chipset_9.1.0_boston/opensource/component_code/vendor/huawei/extra/build/build_script/kirin_kernel_release/kernel/include/linux/notifier.h"
	.file 76 "/mnt/disk/jenkins/ci/workspace/chipset_9.1.0_boston/opensource/component_code/vendor/huawei/extra/build/build_script/kirin_kernel_release/kernel/include/linux/seccomp.h"
	.file 77 "/mnt/disk/jenkins/ci/workspace/chipset_9.1.0_boston/opensource/component_code/vendor/huawei/extra/build/build_script/kirin_kernel_release/kernel/include/uapi/linux/resource.h"
	.file 78 "/mnt/disk/jenkins/ci/workspace/chipset_9.1.0_boston/opensource/component_code/vendor/huawei/extra/build/build_script/kirin_kernel_release/kernel/include/linux/timerqueue.h"
	.file 79 "/mnt/disk/jenkins/ci/workspace/chipset_9.1.0_boston/opensource/component_code/vendor/huawei/extra/build/build_script/kirin_kernel_release/kernel/include/linux/hrtimer.h"
	.file 80 "/mnt/disk/jenkins/ci/workspace/chipset_9.1.0_boston/opensource/component_code/vendor/huawei/extra/build/build_script/kirin_kernel_release/kernel/include/linux/task_io_accounting.h"
	.file 81 "/mnt/disk/jenkins/ci/workspace/chipset_9.1.0_boston/opensource/component_code/vendor/huawei/extra/build/build_script/kirin_kernel_release/kernel/include/linux/assoc_array.h"
	.file 82 "/mnt/disk/jenkins/ci/workspace/chipset_9.1.0_boston/opensource/component_code/vendor/huawei/extra/build/build_script/kirin_kernel_release/kernel/include/linux/key.h"
	.file 83 "/mnt/disk/jenkins/ci/workspace/chipset_9.1.0_boston/opensource/component_code/vendor/huawei/extra/build/build_script/kirin_kernel_release/kernel/include/linux/cred.h"
	.file 84 "/mnt/disk/jenkins/ci/workspace/chipset_9.1.0_boston/opensource/component_code/vendor/huawei/extra/build/build_script/kirin_kernel_release/kernel/include/linux/idr.h"
	.file 85 "/mnt/disk/jenkins/ci/workspace/chipset_9.1.0_boston/opensource/component_code/vendor/huawei/extra/build/build_script/kirin_kernel_release/kernel/include/linux/percpu-refcount.h"
	.file 86 "/mnt/disk/jenkins/ci/workspace/chipset_9.1.0_boston/opensource/component_code/vendor/huawei/extra/build/build_script/kirin_kernel_release/kernel/include/linux/rcu_sync.h"
	.file 87 "/mnt/disk/jenkins/ci/workspace/chipset_9.1.0_boston/opensource/component_code/vendor/huawei/extra/build/build_script/kirin_kernel_release/kernel/include/linux/percpu-rwsem.h"
	.file 88 "/mnt/disk/jenkins/ci/workspace/chipset_9.1.0_boston/opensource/component_code/vendor/huawei/extra/build/build_script/kirin_kernel_release/kernel/include/linux/bpf-cgroup.h"
	.file 89 "/mnt/disk/jenkins/ci/workspace/chipset_9.1.0_boston/opensource/component_code/vendor/huawei/extra/build/build_script/kirin_kernel_release/kernel/include/linux/cgroup-defs.h"
	.file 90 "/mnt/disk/jenkins/ci/workspace/chipset_9.1.0_boston/opensource/component_code/vendor/huawei/extra/build/build_script/kirin_kernel_release/kernel/include/linux/kernfs.h"
	.file 91 "/mnt/disk/jenkins/ci/workspace/chipset_9.1.0_boston/opensource/component_code/vendor/huawei/extra/build/build_script/kirin_kernel_release/kernel/include/linux/seq_file.h"
	.file 92 "/mnt/disk/jenkins/ci/workspace/chipset_9.1.0_boston/opensource/component_code/vendor/huawei/extra/build/build_script/kirin_kernel_release/kernel/include/uapi/linux/taskstats.h"
	.file 93 "/mnt/disk/jenkins/ci/workspace/chipset_9.1.0_boston/opensource/component_code/vendor/huawei/extra/build/build_script/kirin_kernel_release/kernel/include/linux/nsproxy.h"
	.file 94 "/mnt/disk/jenkins/ci/workspace/chipset_9.1.0_boston/opensource/component_code/vendor/huawei/extra/build/build_script/kirin_kernel_release/kernel/include/linux/bio.h"
	.file 95 "/mnt/disk/jenkins/ci/workspace/chipset_9.1.0_boston/opensource/component_code/vendor/huawei/extra/build/build_script/kirin_kernel_release/kernel/include/linux/blkdev.h"
	.file 96 "/mnt/disk/jenkins/ci/workspace/chipset_9.1.0_boston/opensource/component_code/vendor/huawei/extra/build/build_script/kirin_kernel_release/kernel/include/linux/swap.h"
	.file 97 "/mnt/disk/jenkins/ci/workspace/chipset_9.1.0_boston/opensource/component_code/vendor/huawei/extra/build/build_script/kirin_kernel_release/kernel/include/linux/backing-dev-defs.h"
	.file 98 "/mnt/disk/jenkins/ci/workspace/chipset_9.1.0_boston/opensource/component_code/vendor/huawei/extra/build/build_script/kirin_kernel_release/kernel/include/linux/iocontext.h"
	.file 99 "/mnt/disk/jenkins/ci/workspace/chipset_9.1.0_boston/opensource/component_code/vendor/huawei/extra/build/build_script/kirin_kernel_release/kernel/include/linux/stat.h"
	.file 100 "/mnt/disk/jenkins/ci/workspace/chipset_9.1.0_boston/opensource/component_code/vendor/huawei/extra/build/build_script/kirin_kernel_release/kernel/include/uapi/linux/elf.h"
	.file 101 "/mnt/disk/jenkins/ci/workspace/chipset_9.1.0_boston/opensource/component_code/vendor/huawei/extra/build/build_script/kirin_kernel_release/kernel/include/linux/kobject_ns.h"
	.file 102 "/mnt/disk/jenkins/ci/workspace/chipset_9.1.0_boston/opensource/component_code/vendor/huawei/extra/build/build_script/kirin_kernel_release/kernel/include/linux/sysfs.h"
	.file 103 "/mnt/disk/jenkins/ci/workspace/chipset_9.1.0_boston/opensource/component_code/vendor/huawei/extra/build/build_script/kirin_kernel_release/kernel/include/linux/kobject.h"
	.file 104 "/mnt/disk/jenkins/ci/workspace/chipset_9.1.0_boston/opensource/component_code/vendor/huawei/extra/build/build_script/kirin_kernel_release/kernel/include/linux/kref.h"
	.file 105 "/mnt/disk/jenkins/ci/workspace/chipset_9.1.0_boston/opensource/component_code/vendor/huawei/extra/build/build_script/kirin_kernel_release/kernel/include/linux/moduleparam.h"
	.file 106 "/mnt/disk/jenkins/ci/workspace/chipset_9.1.0_boston/opensource/component_code/vendor/huawei/extra/build/build_script/kirin_kernel_release/kernel/include/linux/module.h"
	.file 107 "/mnt/disk/jenkins/ci/workspace/chipset_9.1.0_boston/opensource/component_code/vendor/huawei/extra/build/build_script/kirin_kernel_release/kernel/include/linux/rbtree_latch.h"
	.file 108 "/mnt/disk/jenkins/ci/workspace/chipset_9.1.0_boston/opensource/component_code/vendor/huawei/extra/build/build_script/kirin_kernel_release/kernel/arch/arm64/include/asm/module.h"
	.file 109 "/mnt/disk/jenkins/ci/workspace/chipset_9.1.0_boston/opensource/component_code/vendor/huawei/extra/build/build_script/kirin_kernel_release/kernel/include/linux/tracepoint-defs.h"
	.file 110 "/mnt/disk/jenkins/ci/workspace/chipset_9.1.0_boston/opensource/component_code/vendor/huawei/extra/build/build_script/kirin_kernel_release/kernel/include/linux/klist.h"
	.file 111 "/mnt/disk/jenkins/ci/workspace/chipset_9.1.0_boston/opensource/component_code/vendor/huawei/extra/build/build_script/kirin_kernel_release/kernel/include/linux/list_bl.h"
	.file 112 "/mnt/disk/jenkins/ci/workspace/chipset_9.1.0_boston/opensource/component_code/vendor/huawei/extra/build/build_script/kirin_kernel_release/kernel/include/linux/lockref.h"
	.file 113 "/mnt/disk/jenkins/ci/workspace/chipset_9.1.0_boston/opensource/component_code/vendor/huawei/extra/build/build_script/kirin_kernel_release/kernel/include/linux/dcache.h"
	.file 114 "/mnt/disk/jenkins/ci/workspace/chipset_9.1.0_boston/opensource/component_code/vendor/huawei/extra/build/build_script/kirin_kernel_release/kernel/include/linux/mount.h"
	.file 115 "/mnt/disk/jenkins/ci/workspace/chipset_9.1.0_boston/opensource/component_code/vendor/huawei/extra/build/build_script/kirin_kernel_release/kernel/include/linux/path.h"
	.file 116 "/mnt/disk/jenkins/ci/workspace/chipset_9.1.0_boston/opensource/component_code/vendor/huawei/extra/build/build_script/kirin_kernel_release/kernel/include/linux/shrinker.h"
	.file 117 "/mnt/disk/jenkins/ci/workspace/chipset_9.1.0_boston/opensource/component_code/vendor/huawei/extra/build/build_script/kirin_kernel_release/kernel/include/linux/list_lru.h"
	.file 118 "/mnt/disk/jenkins/ci/workspace/chipset_9.1.0_boston/opensource/component_code/vendor/huawei/extra/build/build_script/kirin_kernel_release/kernel/include/linux/radix-tree.h"
	.file 119 "/mnt/disk/jenkins/ci/workspace/chipset_9.1.0_boston/opensource/component_code/vendor/huawei/extra/build/build_script/kirin_kernel_release/kernel/include/uapi/linux/fiemap.h"
	.file 120 "/mnt/disk/jenkins/ci/workspace/chipset_9.1.0_boston/opensource/component_code/vendor/huawei/extra/build/build_script/kirin_kernel_release/kernel/include/linux/migrate_mode.h"
	.file 121 "/mnt/disk/jenkins/ci/workspace/chipset_9.1.0_boston/opensource/component_code/vendor/huawei/extra/build/build_script/kirin_kernel_release/kernel/include/linux/bvec.h"
	.file 122 "/mnt/disk/jenkins/ci/workspace/chipset_9.1.0_boston/opensource/component_code/vendor/huawei/extra/build/build_script/kirin_kernel_release/kernel/include/linux/blk_types.h"
	.file 123 "/mnt/disk/jenkins/ci/workspace/chipset_9.1.0_boston/opensource/component_code/vendor/huawei/extra/build/build_script/kirin_kernel_release/kernel/include/linux/delayed_call.h"
	.file 124 "/mnt/disk/jenkins/ci/workspace/chipset_9.1.0_boston/opensource/component_code/vendor/huawei/extra/build/build_script/kirin_kernel_release/kernel/include/linux/percpu_counter.h"
	.file 125 "/mnt/disk/jenkins/ci/workspace/chipset_9.1.0_boston/opensource/component_code/vendor/huawei/extra/build/build_script/kirin_kernel_release/kernel/include/linux/quota.h"
	.file 126 "/mnt/disk/jenkins/ci/workspace/chipset_9.1.0_boston/opensource/component_code/vendor/huawei/extra/build/build_script/kirin_kernel_release/kernel/include/linux/projid.h"
	.file 127 "/mnt/disk/jenkins/ci/workspace/chipset_9.1.0_boston/opensource/component_code/vendor/huawei/extra/build/build_script/kirin_kernel_release/kernel/include/linux/writeback.h"
	.file 128 "/mnt/disk/jenkins/ci/workspace/chipset_9.1.0_boston/opensource/component_code/vendor/huawei/extra/build/build_script/kirin_kernel_release/kernel/include/linux/genhd.h"
	.file 129 "/mnt/disk/jenkins/ci/workspace/chipset_9.1.0_boston/opensource/component_code/vendor/huawei/extra/build/build_script/kirin_kernel_release/kernel/include/linux/nfs_fs_i.h"
	.file 130 "/mnt/disk/jenkins/ci/workspace/chipset_9.1.0_boston/opensource/component_code/vendor/huawei/extra/build/build_script/kirin_kernel_release/kernel/include/linux/statfs.h"
	.file 131 "/mnt/disk/jenkins/ci/workspace/chipset_9.1.0_boston/opensource/component_code/vendor/huawei/extra/build/build_script/kirin_kernel_release/kernel/include/linux/pinctrl/devinfo.h"
	.file 132 "/mnt/disk/jenkins/ci/workspace/chipset_9.1.0_boston/opensource/component_code/vendor/huawei/extra/build/build_script/kirin_kernel_release/kernel/include/linux/pm.h"
	.file 133 "/mnt/disk/jenkins/ci/workspace/chipset_9.1.0_boston/opensource/component_code/vendor/huawei/extra/build/build_script/kirin_kernel_release/kernel/include/linux/device.h"
	.file 134 "/mnt/disk/jenkins/ci/workspace/chipset_9.1.0_boston/opensource/component_code/vendor/huawei/extra/build/build_script/kirin_kernel_release/kernel/include/linux/pm_wakeup.h"
	.file 135 "/mnt/disk/jenkins/ci/workspace/chipset_9.1.0_boston/opensource/component_code/vendor/huawei/extra/build/build_script/kirin_kernel_release/kernel/arch/arm64/include/asm/device.h"
	.file 136 "/mnt/disk/jenkins/ci/workspace/chipset_9.1.0_boston/opensource/component_code/vendor/huawei/extra/build/build_script/kirin_kernel_release/kernel/include/linux/bootdevice.h"
	.file 137 "/mnt/disk/jenkins/ci/workspace/chipset_9.1.0_boston/opensource/component_code/vendor/huawei/extra/build/build_script/kirin_kernel_release/kernel/include/linux/vmstat.h"
	.file 138 "/mnt/disk/jenkins/ci/workspace/chipset_9.1.0_boston/opensource/component_code/vendor/huawei/extra/build/build_script/kirin_kernel_release/kernel/include/linux/flex_proportions.h"
	.file 139 "/mnt/disk/jenkins/ci/workspace/chipset_9.1.0_boston/opensource/component_code/vendor/huawei/extra/build/build_script/kirin_kernel_release/kernel/include/linux/mempool.h"
	.file 140 "/mnt/disk/jenkins/ci/workspace/chipset_9.1.0_boston/opensource/component_code/vendor/huawei/extra/build/build_script/kirin_kernel_release/kernel/include/linux/bsg.h"
	.file 141 "/mnt/disk/jenkins/ci/workspace/chipset_9.1.0_boston/opensource/component_code/vendor/huawei/extra/build/build_script/kirin_kernel_release/kernel/include/linux/wbt.h"
	.file 142 "/mnt/disk/jenkins/ci/workspace/chipset_9.1.0_boston/opensource/component_code/vendor/huawei/extra/build/build_script/kirin_kernel_release/kernel/include/linux/elevator.h"
	.file 143 "/mnt/disk/jenkins/ci/workspace/chipset_9.1.0_boston/opensource/component_code/vendor/huawei/extra/build/build_script/kirin_kernel_release/kernel/include/linux/cgroup.h"
	.file 144 "/mnt/disk/jenkins/ci/workspace/chipset_9.1.0_boston/opensource/component_code/vendor/huawei/extra/build/build_script/kirin_kernel_release/kernel/include/linux/ns_common.h"
	.file 145 "/mnt/disk/jenkins/ci/workspace/chipset_9.1.0_boston/opensource/component_code/vendor/huawei/extra/build/build_script/kirin_kernel_release/kernel/include/asm-generic/bitops/builtin-__fls.h"
	.file 146 "/mnt/disk/jenkins/ci/workspace/chipset_9.1.0_boston/opensource/component_code/vendor/huawei/extra/build/build_script/kirin_kernel_release/kernel/include/asm-generic/bitops/fls64.h"
	.file 147 "/mnt/disk/jenkins/ci/workspace/chipset_9.1.0_boston/opensource/component_code/vendor/huawei/extra/build/build_script/kirin_kernel_release/kernel/include/linux/jiffies.h"
	.file 148 "/mnt/disk/jenkins/ci/workspace/chipset_9.1.0_boston/opensource/component_code/vendor/huawei/extra/build/build_script/kirin_kernel_release/kernel/arch/arm64/include/asm/percpu.h"
	.file 149 "/mnt/disk/jenkins/ci/workspace/chipset_9.1.0_boston/opensource/component_code/vendor/huawei/extra/build/build_script/kirin_kernel_release/kernel/include/linux/topology.h"
	.file 150 "/mnt/disk/jenkins/ci/workspace/chipset_9.1.0_boston/opensource/component_code/vendor/huawei/extra/build/build_script/kirin_kernel_release/kernel/include/linux/log2.h"
	.file 151 "/mnt/disk/jenkins/ci/workspace/chipset_9.1.0_boston/opensource/component_code/vendor/huawei/extra/build/build_script/kirin_kernel_release/kernel/include/asm-generic/getorder.h"
	.file 152 "/mnt/disk/jenkins/ci/workspace/chipset_9.1.0_boston/opensource/component_code/vendor/huawei/extra/build/build_script/kirin_kernel_release/kernel/include/linux/kasan-checks.h"
	.file 153 "/mnt/disk/jenkins/ci/workspace/chipset_9.1.0_boston/opensource/component_code/vendor/huawei/extra/build/build_script/kirin_kernel_release/kernel/include/linux/thread_info.h"
	.file 154 "/mnt/disk/jenkins/ci/workspace/chipset_9.1.0_boston/opensource/component_code/vendor/huawei/extra/build/build_script/kirin_kernel_release/kernel/include/linux/hisi/pagecache_debug.h"
	.file 155 "/mnt/disk/jenkins/ci/workspace/chipset_9.1.0_boston/opensource/component_code/vendor/huawei/extra/build/build_script/kirin_kernel_release/kernel/arch/arm64/include/asm/cachetype.h"
	.file 156 "/mnt/disk/jenkins/ci/workspace/chipset_9.1.0_boston/opensource/component_code/vendor/huawei/extra/build/build_script/kirin_kernel_release/kernel/include/linux/printk.h"
	.file 157 "/mnt/disk/jenkins/ci/workspace/chipset_9.1.0_boston/opensource/component_code/vendor/huawei/extra/build/build_script/kirin_kernel_release/kernel/include/linux/kernel.h"
	.file 158 "/mnt/disk/jenkins/ci/workspace/chipset_9.1.0_boston/opensource/component_code/vendor/huawei/extra/build/build_script/kirin_kernel_release/kernel/arch/arm64/include/asm/stack_pointer.h"
	.file 159 "/mnt/disk/jenkins/ci/workspace/chipset_9.1.0_boston/opensource/component_code/vendor/huawei/extra/build/build_script/kirin_kernel_release/kernel/arch/arm64/include/asm/hwcap.h"
	.file 160 "/mnt/disk/jenkins/ci/workspace/chipset_9.1.0_boston/opensource/component_code/vendor/huawei/extra/build/build_script/kirin_kernel_release/kernel/arch/arm64/include/asm/cpufeature.h"
	.file 161 "/mnt/disk/jenkins/ci/workspace/chipset_9.1.0_boston/opensource/component_code/vendor/huawei/extra/build/build_script/kirin_kernel_release/kernel/arch/arm64/include/asm/virt.h"
	.file 162 "/mnt/disk/jenkins/ci/workspace/chipset_9.1.0_boston/opensource/component_code/vendor/huawei/extra/build/build_script/kirin_kernel_release/kernel/include/linux/highuid.h"
	.file 163 "/mnt/disk/jenkins/ci/workspace/chipset_9.1.0_boston/opensource/component_code/vendor/huawei/extra/build/build_script/kirin_kernel_release/kernel/arch/arm64/include/asm/memory.h"
	.file 164 "/mnt/disk/jenkins/ci/workspace/chipset_9.1.0_boston/opensource/component_code/vendor/huawei/extra/build/build_script/kirin_kernel_release/kernel/include/asm-generic/percpu.h"
	.file 165 "/mnt/disk/jenkins/ci/workspace/chipset_9.1.0_boston/opensource/component_code/vendor/huawei/extra/build/build_script/kirin_kernel_release/kernel/include/linux/debug_locks.h"
	.file 166 "/mnt/disk/jenkins/ci/workspace/chipset_9.1.0_boston/opensource/component_code/vendor/huawei/extra/build/build_script/kirin_kernel_release/kernel/include/asm-generic/pgtable.h"
	.file 167 "/mnt/disk/jenkins/ci/workspace/chipset_9.1.0_boston/opensource/component_code/vendor/huawei/extra/build/build_script/kirin_kernel_release/kernel/arch/arm64/include/asm/irq.h"
	.file 168 "/mnt/disk/jenkins/ci/workspace/chipset_9.1.0_boston/opensource/component_code/vendor/huawei/extra/build/build_script/kirin_kernel_release/kernel/arch/arm64/include/asm/hardirq.h"
	.file 169 "/mnt/disk/jenkins/ci/workspace/chipset_9.1.0_boston/opensource/component_code/vendor/huawei/extra/build/build_script/kirin_kernel_release/kernel/include/linux/namei.h"
	.file 170 "/mnt/disk/jenkins/ci/workspace/chipset_9.1.0_boston/opensource/component_code/vendor/huawei/extra/build/build_script/kirin_kernel_release/kernel/arch/arm64/include/asm/bitops.h"
	.file 171 "/mnt/disk/jenkins/ci/workspace/chipset_9.1.0_boston/opensource/component_code/vendor/huawei/extra/build/build_script/kirin_kernel_release/kernel/mm/internal.h"
	.section	.note.GNU-stack,"",%progbits
